L251 LINKER/LOCATER V4.66.93.0                                                          08/24/2022  19:19:43  PAGE 1


L251 LINKER/LOCATER V4.66.93.0, INVOKED BY:
D:\APPLICATION\KEILC251_V560\C251\BIN\L251.EXE .\Objects\oled_anim.obj, .\Objects\oled_draw.obj, .\Objects\oled_font.obj
>> , .\Objects\oled_group.obj, .\Objects\oled_gui.obj, .\Objects\oled_widget.obj, .\Objects\GT20L16S1Y.obj, .\Objects\ol
>> ed_bmp.obj, .\Objects\oled_slider.obj, .\Objects\oled_switch.obj, .\Objects\oled_canvas.obj, .\Objects\oled_label.obj
>> , .\Objects\Buzzer.obj, .\Objects\Delay.obj, .\Objects\EEPROM.obj, .\Objects\IIC.obj, .\Objects\SPI.obj, .\Objects\Sy
>> stem.obj, .\Objects\RX8130CE.obj, .\Objects\oled.obj, .\Objects\main.obj, .\Objects\iWatch.obj, .\Objects\LSM6DSM.obj
>> , .\Objects\QMC5883L.obj, .\Objects\Ellipsoid fitting.obj, .\Objects\BMP390.obj, .\Objects\HDC2080.obj, .\Objects\HTU
>> 21D.obj, .\Objects\pageManager.obj, .\Objects\page_alarm.obj, .\Objects\page_compass.obj, .\Objects\page_devInfo.obj,
>>  .\Objects\page_flashlight.obj, .\Objects\page_hdc2080.obj, .\Objects\page_ilink.obj, .\Objects\page_lsm6dsl.obj, .\O
>> bjects\page_magcal.obj, .\Objects\page_menu.obj, .\Objects\page_pedometer.obj, .\Objects\page_settime.obj, .\Objects\
>> page_setting.obj, .\Objects\page_snake.obj, .\Objects\page_trexrunner.obj, .\Objects\page_watch.obj, .\Objects\page_b
>> tspp.obj, .\Objects\page_stopwatch.obj, .\Objects\Bluetooth.obj TO .\Objects\iWatch-v2.0 PRINT (.\Listings\iWatch-v2.
>> map) CASE CLASSES (EDATA (0X0-0XFFF), HDATA (0X0-0XFFF), HCONST (0XFE0400-0XFFFFFF), ECODE (0XFE0400-0XFFFFFF))


CPU MODE:     251 SOURCE MODE
INTR FRAME:   4 BYTES SAVED ON INTERRUPT
MEMORY MODEL: XSMALL WITH FLOATING POINT ARITHMETIC


INPUT MODULES INCLUDED:
  .\Objects\oled_anim.obj (oled_anim)
         COMMENT TYPE 0: C251 V5.60.0
  .\Objects\oled_draw.obj (oled_draw)
         COMMENT TYPE 0: C251 V5.60.0
  .\Objects\oled_font.obj (oled_font)
         COMMENT TYPE 0: C251 V5.60.0
  .\Objects\oled_group.obj (oled_group)
         COMMENT TYPE 0: C251 V5.60.0
  .\Objects\oled_gui.obj (oled_gui)
         COMMENT TYPE 0: C251 V5.60.0
  .\Objects\oled_widget.obj (oled_widget)
         COMMENT TYPE 0: C251 V5.60.0
  .\Objects\GT20L16S1Y.obj (GT20L16S1Y)
         COMMENT TYPE 0: C251 V5.60.0
  .\Objects\oled_bmp.obj (oled_bmp)
         COMMENT TYPE 0: C251 V5.60.0
  .\Objects\oled_slider.obj (oled_slider)
         COMMENT TYPE 0: C251 V5.60.0
  .\Objects\oled_switch.obj (oled_switch)
         COMMENT TYPE 0: C251 V5.60.0
  .\Objects\oled_canvas.obj (oled_canvas)
         COMMENT TYPE 0: C251 V5.60.0
  .\Objects\oled_label.obj (oled_label)
         COMMENT TYPE 0: C251 V5.60.0
  .\Objects\Buzzer.obj (Buzzer)
         COMMENT TYPE 0: C251 V5.60.0
  .\Objects\Delay.obj (Delay)
         COMMENT TYPE 0: C251 V5.60.0
  .\Objects\EEPROM.obj (EEPROM)
         COMMENT TYPE 0: C251 V5.60.0
  .\Objects\IIC.obj (IIC)
         COMMENT TYPE 0: C251 V5.60.0
  .\Objects\SPI.obj (SPI)
         COMMENT TYPE 0: C251 V5.60.0
  .\Objects\System.obj (System)
         COMMENT TYPE 0: C251 V5.60.0
  .\Objects\RX8130CE.obj (RX8130CE)
         COMMENT TYPE 0: C251 V5.60.0
  .\Objects\oled.obj (oled)
         COMMENT TYPE 0: C251 V5.60.0
  .\Objects\main.obj (main)
         COMMENT TYPE 0: C251 V5.60.0
  .\Objects\iWatch.obj (iWatch)
         COMMENT TYPE 0: C251 V5.60.0
  .\Objects\LSM6DSM.obj (LSM6DSM)
L251 LINKER/LOCATER V4.66.93.0                                                        08/24/2022  19:19:43  PAGE 2


         COMMENT TYPE 0: C251 V5.60.0
  .\Objects\QMC5883L.obj (QMC5883L)
         COMMENT TYPE 0: C251 V5.60.0
  .\Objects\Ellipsoid fitting.obj (Ellipsoid fitting)
         COMMENT TYPE 0: C251 V5.60.0
  .\Objects\BMP390.obj (BMP390)
         COMMENT TYPE 0: C251 V5.60.0
  .\Objects\HDC2080.obj (HDC2080)
         COMMENT TYPE 0: C251 V5.60.0
  .\Objects\HTU21D.obj (HTU21D)
         COMMENT TYPE 0: C251 V5.60.0
  .\Objects\pageManager.obj (pageManager)
         COMMENT TYPE 0: C251 V5.60.0
  .\Objects\page_alarm.obj (page_alarm)
         COMMENT TYPE 0: C251 V5.60.0
  .\Objects\page_compass.obj (page_compass)
         COMMENT TYPE 0: C251 V5.60.0
  .\Objects\page_devInfo.obj (page_devInfo)
         COMMENT TYPE 0: C251 V5.60.0
  .\Objects\page_flashlight.obj (page_flashlight)
         COMMENT TYPE 0: C251 V5.60.0
  .\Objects\page_hdc2080.obj (page_hdc2080)
         COMMENT TYPE 0: C251 V5.60.0
  .\Objects\page_ilink.obj (page_ilink)
         COMMENT TYPE 0: C251 V5.60.0
  .\Objects\page_lsm6dsl.obj (page_lsm6dsl)
         COMMENT TYPE 0: C251 V5.60.0
  .\Objects\page_magcal.obj (page_magcal)
         COMMENT TYPE 0: C251 V5.60.0
  .\Objects\page_menu.obj (page_menu)
         COMMENT TYPE 0: C251 V5.60.0
  .\Objects\page_pedometer.obj (page_pedometer)
         COMMENT TYPE 0: C251 V5.60.0
  .\Objects\page_settime.obj (page_settime)
         COMMENT TYPE 0: C251 V5.60.0
  .\Objects\page_setting.obj (page_setting)
         COMMENT TYPE 0: C251 V5.60.0
  .\Objects\page_snake.obj (page_snake)
         COMMENT TYPE 0: C251 V5.60.0
  .\Objects\page_trexrunner.obj (page_trexrunner)
         COMMENT TYPE 0: C251 V5.60.0
  .\Objects\page_watch.obj (page_watch)
         COMMENT TYPE 0: C251 V5.60.0
  .\Objects\page_btspp.obj (page_btspp)
         COMMENT TYPE 0: C251 V5.60.0
  .\Objects\page_stopwatch.obj (page_stopwatch)
         COMMENT TYPE 0: C251 V5.60.0
  .\Objects\Bluetooth.obj (Bluetooth)
         COMMENT TYPE 0: C251 V5.60.0
  D:\APPLICATION\KEILC251_V560\C251\LIB\C2SFPXS.LIB (?C?FPADD?)
         COMMENT TYPE 0: A251 V4.69.6.0
  D:\APPLICATION\KEILC251_V560\C251\LIB\C2SFPXS.LIB (?C?FPMUL?)
         COMMENT TYPE 0: A251 V4.69.6.0
  D:\APPLICATION\KEILC251_V560\C251\LIB\C2SFPXS.LIB (?C?FPDIV?)
         COMMENT TYPE 0: A251 V4.69.6.0
  D:\APPLICATION\KEILC251_V560\C251\LIB\C2SFPXS.LIB (?C?FPCMP?)
         COMMENT TYPE 0: A251 V4.69.6.0
  D:\APPLICATION\KEILC251_V560\C251\LIB\C2SFPXS.LIB (?C?FPNEG?)
         COMMENT TYPE 0: A251 V4.69.6.0
  D:\APPLICATION\KEILC251_V560\C251\LIB\C2SFPXS.LIB (?C?FCAST?)
         COMMENT TYPE 0: A251 V4.69.6.0
  D:\APPLICATION\KEILC251_V560\C251\LIB\C2SFPXS.LIB (?C?CASTF?)
         COMMENT TYPE 0: A251 V4.69.6.0
  D:\APPLICATION\KEILC251_V560\C251\LIB\C2SFPXS.LIB (PRINTF?)
         COMMENT TYPE 0: A251 V4.69.6.0
L251 LINKER/LOCATER V4.66.93.0                                                        08/24/2022  19:19:43  PAGE 3


  D:\APPLICATION\KEILC251_V560\C251\LIB\C2SFPXS.LIB (SPRINTF?)
         COMMENT TYPE 0: A251 V4.69.6.0
  D:\APPLICATION\KEILC251_V560\C251\LIB\C2SFPXS.LIB (SQRT??)
         COMMENT TYPE 0: A251 V4.69.6.0
  D:\APPLICATION\KEILC251_V560\C251\LIB\C2SFPXS.LIB (SIN??)
         COMMENT TYPE 0: A251 V4.69.6.0
  D:\APPLICATION\KEILC251_V560\C251\LIB\C2SFPXS.LIB (ATAN??)
         COMMENT TYPE 0: A251 V4.69.6.0
  D:\APPLICATION\KEILC251_V560\C251\LIB\C2SFPXS.LIB (ASIN??)
         COMMENT TYPE 0: A251 V4.69.6.0
  D:\APPLICATION\KEILC251_V560\C251\LIB\C2SFPXS.LIB (ATAN2?)
         COMMENT TYPE 0: C251 V5.58.7
  D:\APPLICATION\KEILC251_V560\C251\LIB\C2SFPXS.LIB (?C?FPGETOPN?)
         COMMENT TYPE 0: A251 V4.69.6.0
  D:\APPLICATION\KEILC251_V560\C251\LIB\C2SFPXS.LIB (?C?PRNFMT?)
         COMMENT TYPE 0: A251 V4.69.6.0
  D:\APPLICATION\KEILC251_V560\C251\LIB\C2SFPXS.LIB (?C?FPSERIES?)
         COMMENT TYPE 0: A251 V4.69.6.0
  D:\APPLICATION\KEILC251_V560\C251\LIB\C2SFPXS.LIB (?C?FPCONVERT?)
         COMMENT TYPE 0: A251 V4.69.6.0
  D:\APPLICATION\KEILC251_V560\C251\LIB\C2SFPXS.LIB (?C?FTNPWR?)
         COMMENT TYPE 0: A251 V4.69.6.0
  D:\APPLICATION\KEILC251_V560\C251\LIB\C2SXS.LIB (?C_START?)
         COMMENT TYPE 0: A251 V4.69.6.0
  D:\APPLICATION\KEILC251_V560\C251\LIB\C2SXS.LIB (?C?INITEDATA)
         COMMENT TYPE 0: A251 V4.69.6.0
  D:\APPLICATION\KEILC251_V560\C251\LIB\C2SXS.LIB (?C?INITHDATA)
         COMMENT TYPE 0: A251 V4.69.6.0
  D:\APPLICATION\KEILC251_V560\C251\LIB\C2SXS.LIB (?C?SIDIV?)
         COMMENT TYPE 0: A251 V4.69.6.0
  D:\APPLICATION\KEILC251_V560\C251\LIB\C2SXS.LIB (?C?ULDIV?)
         COMMENT TYPE 0: A251 V4.69.6.0
  D:\APPLICATION\KEILC251_V560\C251\LIB\C2SXS.LIB (PUTCHAR?)
         COMMENT TYPE 0: A251 V4.69.6.0
  D:\APPLICATION\KEILC251_V560\C251\LIB\C2SXS.LIB (ATOI?)
         COMMENT TYPE 0: C251 V5.58.7
  D:\APPLICATION\KEILC251_V560\C251\LIB\C2SXS.LIB (RAND?)
         COMMENT TYPE 0: C251 V5.58.7
  D:\APPLICATION\KEILC251_V560\C251\LIB\C2SXS.LIB (STRCMP??)
         COMMENT TYPE 0: A251 V4.69.6.0
  D:\APPLICATION\KEILC251_V560\C251\LIB\C2SXS.LIB (MEMCPY?)
         COMMENT TYPE 0: C251 V5.58.7
  D:\APPLICATION\KEILC251_V560\C251\LIB\C2SXS.LIB (MALLOC?)
         COMMENT TYPE 0: C251 V5.58.7
  D:\APPLICATION\KEILC251_V560\C251\LIB\C2SXS.LIB (FREE?)
         COMMENT TYPE 0: C251 V5.58.7
  D:\APPLICATION\KEILC251_V560\C251\LIB\C2SXS.LIB (INIT_MEM?)
         COMMENT TYPE 0: C251 V5.58.7
  D:\APPLICATION\KEILC251_V560\C251\LIB\C2SXS.LIB (REALLOC?)
         COMMENT TYPE 0: C251 V5.58.7
  D:\APPLICATION\KEILC251_V560\C251\LIB\C2SXS.LIB (CALLOC?)
         COMMENT TYPE 0: C251 V5.58.7
  D:\APPLICATION\KEILC251_V560\C251\LIB\C2SXS.LIB (?C?INITEDATA_END)
         COMMENT TYPE 0: A251 V4.69.6.0
  D:\APPLICATION\KEILC251_V560\C251\LIB\C2SXS.LIB (?C?INITHDATA_END)
         COMMENT TYPE 0: A251 V4.69.6.0
  D:\APPLICATION\KEILC251_V560\C251\LIB\C2SXS.LIB (?C?LMUL?)
         COMMENT TYPE 0: A251 V4.69.6.0
  D:\APPLICATION\KEILC251_V560\C251\LIB\C2SXS.LIB (ISDIGIT?)
         COMMENT TYPE 0: C251 V5.58.7
  D:\APPLICATION\KEILC251_V560\C251\LIB\C2SXS.LIB (ISSPACE?)
         COMMENT TYPE 0: C251 V5.58.7
  D:\APPLICATION\KEILC251_V560\C251\LIB\C2SXS.LIB (MEMSET?)
         COMMENT TYPE 0: C251 V5.58.7
  D:\APPLICATION\KEILC251_V560\C251\LIB\C2SXS.LIB (mdefine)
L251 LINKER/LOCATER V4.66.93.0                                                        08/24/2022  19:19:43  PAGE 4


         COMMENT TYPE 0: C251 V5.58.7


ACTIVE MEMORY CLASSES OF MODULE:  .\Objects\iWatch-v2.0 (oled_anim)

BASE        START       END         USED      MEMORY CLASS
==========================================================
000000H     000000H     000FFFH     000B89H   EDATA
000000H     000000H     000FFFH     000004H   HDATA
000000H     FE0400H     FFFFFFH     000849H   HCONST
000000H     FE0400H     FFFFFFH     00AD48H   ECODE
010000H     010000H     01FFFFH     00166AH   XDATA
FF0000H     FF0000H     FFFFFFH     001929H   CODE
000000H     000000H     00007FH     000012H   DATA
000020H.0   000020H.0   00002FH.7   000000H.4 BIT
000000H     000000H     0000FFH     000014H   IDATA


MEMORY MAP OF MODULE:  .\Objects\iWatch-v2.0 (oled_anim)


START     STOP      LENGTH    ALIGN  RELOC    MEMORY CLASS   SEGMENT NAME
=========================================================================
000000H   000007H   000008H   ---    AT..     DATA           "REG BANK 0"
000008H   00000FH   000008H   ---    AT..     DATA           "REG BANK 1"
000010H   000011H   000002H   BYTE   UNIT     DATA           ?DT?IIC
000012H   00001DH   00000CH   BYTE   UNIT     IDATA          ?ID?IMUUPDATE??LSM6DSM
00001EH   00001EH   000001H   BYTE   UNIT     EDATA          ?ED?HTU21D
00001FH.0 00001FH.7 000001H.0 ---    ---      **GAP**
000020H.0 000020H.2 000000H.3 BIT    UNIT     BIT            ?BI?PAGE_SNAKE
000020H.3 000020H.3 000000H.1 BIT    UNIT     BIT            ?BI?IWATCH
000020H.4 000020H   000000H.4 ---    ---      **GAP**
000021H   000028H   000008H   BYTE   UNIT     IDATA          ?ID?LSM6DSM
000029H   000428H   000400H   BYTE   UNIT     EDATA          ?ED?OLED_DRAW
000429H   00060AH   0001E2H   BYTE   UNIT     EDATA          ?ED?PAGEMANAGER
00060BH   0006E4H   0000DAH   BYTE   UNIT     EDATA          ?ED?ELLIPSOID_FITTING
0006E5H   000761H   00007DH   BYTE   UNIT     EDATA          ?ED?PAGE_ILINK
000762H   0007A6H   000045H   BYTE   UNIT     EDATA          ?ED?PAGE_MENU
0007A7H   0007EAH   000044H   BYTE   UNIT     EDATA          _EDATA_GROUP_
0007EBH   00082AH   000040H   BYTE   UNIT     EDATA          ?ED?OLED_LABEL
00082BH   000862H   000038H   BYTE   UNIT     EDATA          ?ED?PAGE_SETTING
000863H   000898H   000036H   BYTE   UNIT     EDATA          ?ED?PAGE_WATCH
000899H   0008CCH   000034H   BYTE   UNIT     EDATA          ?ED?PAGE_COMPASS
0008CDH   0008FFH   000033H   BYTE   UNIT     EDATA          ?ED?PAGE_STOPWATCH
000900H   00092FH   000030H   BYTE   UNIT     EDATA          ?ED?PAGE_SETTIME
000930H   00095CH   00002DH   BYTE   UNIT     EDATA          ?ED?PAGE_DEVINFO
00095DH   000988H   00002CH   BYTE   UNIT     EDATA          ?ED?IWATCH
000989H   0009AEH   000026H   BYTE   UNIT     EDATA          ?ED?PAGE_TREXRUNNER
0009AFH   0009CFH   000021H   BYTE   UNIT     EDATA          ?ED?PAGE_SNAKE
0009D0H   0009ECH   00001DH   BYTE   UNIT     EDATA          ?ED?PAGE_HDC2080
0009EDH   000A08H   00001CH   BYTE   UNIT     EDATA          ?ED?PAGE_ALARM
000A09H   000A22H   00001AH   BYTE   UNIT     EDATA          ?ED?PAGE_LSM6DSL
000A23H   000A3BH   000019H   BYTE   UNIT     EDATA          ?ED?PAGE_PEDOMETER
000A3CH   000A50H   000015H   BYTE   UNIT     EDATA          ?ED?LSM6DSM
000A51H   000A62H   000012H   BYTE   UNIT     EDATA          ?ED?QMC5883L
000A63H   000A72H   000010H   BYTE   UNIT     EDATA          ?ED?IMUUPDATE??LSM6DSM
000A73H   000A7DH   00000BH   BYTE   UNIT     EDATA          ?ED?OLED_ANIM
000A7EH   000A87H   00000AH   BYTE   UNIT     EDATA          ?ED?PAGE_FLASHLIGHT
000A88H   000A91H   00000AH   BYTE   UNIT     EDATA          ?ED?PAGE_MAGCAL
000A92H   000A9AH   000009H   BYTE   UNIT     EDATA          ?ED?OLED_WIDGET
000A9BH   000A9EH   000004H   BYTE   UNIT     EDATA          ?ED?OLED_GUI
000A9FH   000AA2H   000004H   BYTE   UNIT     EDATA          ?ED?HDC2080GETTH??HDC2080
000AA3H   000AA6H   000004H   BYTE   UNIT     EDATA          ?ED?PAGE_BTSPP
000AA7H   000AAAH   000004H   BYTE   UNIT     EDATA          ?ED?RAND_
000AABH   000AADH   000003H   BYTE   UNIT     EDATA          ?ED?BUZZER
L251 LINKER/LOCATER V4.66.93.0                                                        08/24/2022  19:19:43  PAGE 5


000AAEH   000AB0H   000003H   BYTE   UNIT     EDATA          ?ED?SYSTEM
000AB1H   000BB0H   000100H   BYTE   UNIT     EDATA          ?STACK
000BB1H   000BB4H   000004H   BYTE   INSEG    HDATA          ?FD?MDEFINE
000BB5H   00FFFFH   00F44BH   ---    ---      **GAP**
010000H   010FFFH   001000H   BYTE   INSEG    XDATA          ?XD?OLED_GUI
011000H   011264H   000265H   BYTE   INSEG    XDATA          ?XD?PAGE_WATCH
011265H   01146AH   000206H   BYTE   INSEG    XDATA          ?XD?PAGE_SNAKE
01146BH   01150EH   0000A4H   BYTE   INSEG    XDATA          ?XD?IWATCH
01150FH   011594H   000086H   BYTE   INSEG    XDATA          ?XD?PAGE_ILINK
011595H   0115D9H   000045H   BYTE   INSEG    XDATA          ?XD?BMP390
0115DAH   01161BH   000042H   BYTE   INSEG    XDATA          ?XD?BLUETOOTH
01161CH   01165CH   000041H   BYTE   INSEG    XDATA          ?XD?PAGE_BTSPP
01165DH   011663H   000007H   BYTE   INSEG    XDATA          ?XD?PAGE_SETTIME
011664H   011668H   000005H   BYTE   INSEG    XDATA          ?XD?PAGE_TREXRUNNER
011669H   011669H   000001H   BYTE   INSEG    XDATA          ?XD?PAGE_SETTING
01166AH   FE03FFH   FCED96H   ---    ---      **GAP**
FE0400H   FE10C7H   000CC8H   BYTE   INSEG    ECODE          ?C?LIB_CODE?
FE10C8H   FE1B8CH   000AC5H   BYTE   INSEG    ECODE          ?PR?IWATCH
FE1B8DH   FE24D1H   000945H   BYTE   INSEG    ECODE          ?PR?OLED_LABEL
FE24D2H   FE2DDFH   00090EH   BYTE   INSEG    ECODE          ?PR?PAGE_ILINK
FE2DE0H   FE3642H   000863H   BYTE   INSEG    ECODE          ?PR?LSM6DSM
FE3643H   FE3D68H   000726H   BYTE   INSEG    ECODE          ?PR?PAGE_SNAKE
FE3D69H   FE42E8H   000580H   BYTE   INSEG    ECODE          ?PR?PAGE_ALARM
FE42E9H   FE4858H   000570H   BYTE   INSEG    ECODE          ?PR?PAGE_TREXRUNNER
FE4859H   FE4D9AH   000542H   BYTE   INSEG    ECODE          ?PR?PAGE_SETTING
FE4D9BH   FE52CDH   000533H   BYTE   INSEG    ECODE          ?PR?OLED_CANVAS
FE52CEH   FE57FFH   000532H   BYTE   INSEG    ECODE          ?PR?BMP390
FE5800H   FE5CD6H   0004D7H   BYTE   INSEG    ECODE          ?PR?ELLIPSOID_FITTING
FE5CD7H   FE6187H   0004B1H   BYTE   INSEG    ECODE          ?PR?PAGE_STOPWATCH
FE6188H   FE662DH   0004A6H   BYTE   INSEG    ECODE          ?PR?PAGE_WATCH
FE662EH   FE6AA6H   000479H   BYTE   INSEG    ECODE          ?PR?PAGE_SETTIME
FE6AA7H   FE6F0DH   000467H   BYTE   INSEG    ECODE          ?PR?PAGE_COMPASS
FE6F0EH   FE72FCH   0003EFH   BYTE   INSEG    ECODE          ?PR?RX8130CE
FE72FDH   FE76C6H   0003CAH   BYTE   INSEG    ECODE          ?PR?PAGE_PEDOMETER
FE76C7H   FE7A64H   00039EH   BYTE   INSEG    ECODE          ?PR?OLED_GROUP
FE7A65H   FE7E02H   00039EH   BYTE   INSEG    ECODE          ?PR?PAGE_MENU
FE7E03H   FE819FH   00039DH   BYTE   INSEG    ECODE          ?PR?OLED_ANIM
FE81A0H   FE84D6H   000337H   BYTE   INSEG    ECODE          ?PR?OLED_SLIDER
FE84D7H   FE87DDH   000307H   BYTE   INSEG    ECODE          ?PR?OLED_WIDGET
FE87DEH   FE8AACH   0002CFH   BYTE   INSEG    ECODE          ?PR?QMC5883L
FE8AADH   FE8D6AH   0002BEH   BYTE   INSEG    ECODE          ?PR?OLED_DRAW
FE8D6BH   FE8FF9H   00028FH   BYTE   INSEG    ECODE          ?PR?PAGE_MAGCAL
FE8FFAH   FE9276H   00027DH   BYTE   INSEG    ECODE          ?PR?PAGE_DEVINFO
FE9277H   FE94F2H   00027CH   BYTE   INSEG    ECODE          ?PR?IIC
FE94F3H   FE9732H   000240H   BYTE   INSEG    ECODE          ?PR?PAGE_LSM6DSL
FE9733H   FE996FH   00023DH   BYTE   INSEG    ECODE          ?PR?PAGE_BTSPP
FE9970H   FE9B8BH   00021CH   BYTE   INSEG    ECODE          ?PR?PAGE_HDC2080
FE9B8CH   FE9DA4H   000219H   BYTE   INSEG    ECODE          ?PR?GT20L16S1Y
FE9DA5H   FE9F9AH   0001F6H   BYTE   INSEG    ECODE          ?PR?PAGEMANAGER
FE9F9BH   FEA16CH   0001D2H   BYTE   INSEG    ECODE          ?PR?PAGE_FLASHLIGHT
FEA16DH   FEA330H   0001C4H   BYTE   INSEG    ECODE          ?PR?SYSTEM
FEA331H   FEA4C1H   000191H   BYTE   INSEG    ECODE          ?PR?OLED
FEA4C2H   FEA63EH   00017DH   BYTE   INSEG    ECODE          ?PR?BUZZER
FEA63FH   FEA7B2H   000174H   BYTE   INSEG    ECODE          ?PR?OLED_SWITCH
FEA7B3H   FEA90CH   00015AH   BYTE   INSEG    ECODE          ?PR?HTU21D
FEA90DH   FEAA5EH   000152H   BYTE   INSEG    ECODE          ?PR?HDC2080
FEAA5FH   FEAB45H   0000E7H   BYTE   INSEG    ECODE          ?PR?FREE_
FEAB46H   FEAC27H   0000E2H   BYTE   INSEG    ECODE          ?PR?BLUETOOTH
FEAC28H   FEACEBH   0000C4H   BYTE   INSEG    ECODE          ?PR?EEPROM
FEACECH   FEAD95H   0000AAH   BYTE   INSEG    ECODE          ?PR?OLED_BMP
FEAD96H   FEAE19H   000084H   BYTE   INSEG    ECODE          ?PR?OLED_GUI
FEAE1AH   FEAE9AH   000081H   BYTE   INSEG    ECODE          ?PR?ATOI_
FEAE9BH   FEAF0AH   000070H   BYTE   INSEG    ECODE          ?PR?SPI
FEAF0BH   FEAF63H   000059H   BYTE   INSEG    ECODE          ?PR?MALLOC_
FEAF64H   FEAFB5H   000052H   BYTE   INSEG    ECODE          ?PR?REALLOC_
L251 LINKER/LOCATER V4.66.93.0                                                        08/24/2022  19:19:43  PAGE 6


FEAFB6H   FEAFFEH   000049H   BYTE   INSEG    ECODE          ?PR?ATAN2_
FEAFFFH   FEB036H   000038H   BYTE   INSEG    ECODE          ?PR?DELAY
FEB037H   FEB067H   000031H   BYTE   INSEG    ECODE          ?PR?RAND_
FEB068H   FEB08EH   000027H   BYTE   INSEG    ECODE          ?PR?INIT_MEM_
FEB08FH   FEB0B4H   000026H   BYTE   INSEG    ECODE          ?PR?CALLOC_
FEB0B5H   FEB0D9H   000025H   BYTE   INSEG    ECODE          ?PR?MEMCPY_
FEB0DAH   FEB0F3H   00001AH   BYTE   INSEG    ECODE          ?PR?STRCMP??
FEB0F4H   FEB10DH   00001AH   BYTE   INSEG    ECODE          ?PR?MEMSET_
FEB10EH   FEB123H   000016H   BYTE   INSEG    ECODE          ?PR?MAIN
FEB124H   FEB137H   000014H   BYTE   INSEG    ECODE          ?PR?ISSPACE_
FEB138H   FEB147H   000010H   BYTE   INSEG    ECODE          ?PR?ISDIGIT_
FEB148H   FEB45FH   000318H   BYTE   UNIT     HCONST         ?C_INITHDATA
FEB460H   FEB5F0H   000191H   BYTE   UNIT     HCONST         ?C_INITEDATA
FEB5F1H   FEB6BBH   0000CBH   BYTE   UNIT     HCONST         ?HC?PAGE_ILINK
FEB6BCH   FEB737H   00007CH   BYTE   UNIT     HCONST         ?HC?PAGE_DEVINFO
FEB738H   FEB781H   00004AH   BYTE   UNIT     HCONST         ?HC?PAGE_SETTING
FEB782H   FEB7B9H   000038H   BYTE   UNIT     HCONST         ?HC?PAGE_HDC2080
FEB7BAH   FEB7E9H   000030H   BYTE   UNIT     HCONST         ?HC?PAGE_LSM6DSL
FEB7EAH   FEB816H   00002DH   BYTE   UNIT     HCONST         ?HC?PAGE_BTSPP
FEB817H   FEB841H   00002BH   BYTE   UNIT     HCONST         ?HC?PAGE_COMPASS
FEB842H   FEB86AH   000029H   BYTE   UNIT     HCONST         ?HC?PAGE_SETTIME
FEB86BH   FEB891H   000027H   BYTE   UNIT     HCONST         ?HC?PAGE_STOPWATCH
FEB892H   FEB8B4H   000023H   BYTE   UNIT     HCONST         ?HC?PAGE_MAGCAL
FEB8B5H   FEB8D5H   000021H   BYTE   UNIT     HCONST         ?HC?PAGE_SNAKE
FEB8D6H   FEB8F5H   000020H   BYTE   UNIT     HCONST         ?HC?ELLIPSOID_FITTING
FEB8F6H   FEB913H   00001EH   BYTE   UNIT     HCONST         ?HC?PAGE_WATCH
FEB914H   FEB92EH   00001BH   BYTE   UNIT     HCONST         ?HC?PAGE_TREXRUNNER
FEB92FH   FEB946H   000018H   BYTE   UNIT     HCONST         ?HC?GT20L16S1Y
FEB947H   FEB95BH   000015H   BYTE   UNIT     HCONST         ?HC?PAGE_FLASHLIGHT
FEB95CH   FEB970H   000015H   BYTE   UNIT     HCONST         ?HC?PAGE_PEDOMETER
FEB971H   FEB97FH   00000FH   BYTE   UNIT     HCONST         ?HC?PAGE_ALARM
FEB980H   FEB98CH   00000DH   BYTE   UNIT     HCONST         ?HC?PAGE_MENU
FEB98DH   FEB990H   000004H   BYTE   INSEG    HCONST         ?HC?PRINTF
FEB991H   FEFFFFH   00466FH   ---    ---      **GAP**
FF0000H   FF0002H   000003H   ---    OFFS..   CODE           ?CO?start251?4
FF0003H   FF0006H   000004H   ---    OFFS..   CODE           ?PR?IV?0
FF0007H   FF0009H   000003H   BYTE   UNIT     CODE           ?CO?HDC2080
FF000AH   FF000AH   000001H   ---    ---      **GAP**
FF000BH   FF000EH   000004H   ---    OFFS..   CODE           ?PR?IV?1
FF000FH   FF0012H   000004H   ---    ---      **GAP**
FF0013H   FF0016H   000004H   ---    OFFS..   CODE           ?PR?IV?2
FF0017H   FF001AH   000004H   ---    ---      **GAP**
FF001BH   FF001EH   000004H   ---    OFFS..   CODE           ?PR?IV?3
FF001FH   FF0022H   000004H   ---    ---      **GAP**
FF0023H   FF0026H   000004H   ---    OFFS..   CODE           ?PR?IV?4
FF0027H   FF0030H   00000AH   BYTE   UNIT     CODE           ?CO?OLED_LABEL
FF0031H   FF0052H   000022H   ---    ---      **GAP**
FF0053H   FF0056H   000004H   ---    OFFS..   CODE           ?PR?IV?10
FF0057H   FF005AH   000004H   ---    ---      **GAP**
FF005BH   FF005EH   000004H   ---    OFFS..   CODE           ?PR?IV?11
FF005FH   FF0092H   000034H   ---    ---      **GAP**
FF0093H   FF0096H   000004H   ---    OFFS..   CODE           ?PR?IV?18
FF0097H   FF009AH   000004H   ---    ---      **GAP**
FF009BH   FF009EH   000004H   ---    OFFS..   CODE           ?PR?IV?19
FF009FH   FF04FEH   000460H   BYTE   UNIT     CODE           ?CO?PAGE_WATCH
FF04FFH   FF08ABH   0003ADH   BYTE   UNIT     CODE           ?CO?PAGE_TREXRUNNER
FF08ACH   FF0A55H   0001AAH   BYTE   UNIT     CODE           ?CO?PAGE_STOPWATCH
FF0A56H   FF0BBDH   000168H   BYTE   UNIT     CODE           ?CO?PAGE_COMPASS
FF0BBEH   FF0D1FH   000162H   BYTE   UNIT     CODE           ?CO?PAGE_ALARM
FF0D20H   FF0E78H   000159H   BYTE   UNIT     CODE           ?CO?PAGE_ILINK
FF0E79H   FF0FC2H   00014AH   BYTE   UNIT     CODE           ?CO?PAGE_DEVINFO
FF0FC3H   FF1100H   00013EH   BYTE   UNIT     CODE           ?CO?PAGE_SETTING
FF1101H   FF123AH   00013AH   BYTE   UNIT     CODE           ?CO?PAGE_PEDOMETER
FF123BH   FF1368H   00012EH   BYTE   UNIT     CODE           ?CO?PAGE_HDC2080
FF1369H   FF148AH   000122H   BYTE   UNIT     CODE           ?CO?PAGE_FLASHLIGHT
L251 LINKER/LOCATER V4.66.93.0                                                        08/24/2022  19:19:43  PAGE 7


FF148BH   FF15ACH   000122H   BYTE   UNIT     CODE           ?CO?PAGE_LSM6DSL
FF15ADH   FF16CEH   000122H   BYTE   UNIT     CODE           ?CO?PAGE_SNAKE
FF16CFH   FF17F0H   000122H   BYTE   UNIT     CODE           ?CO?PAGE_BTSPP
FF17F1H   FF186AH   00007AH   BYTE   UNIT     CODE           ?CO?IWATCH
FF186BH   FF187DH   000013H   BYTE   UNIT     CODE           ?C_C51STARTUP
FF187EH   FF1885H   000008H   BYTE   UNIT     CODE           ?C_C51STARTUP?1
FF1886H   FF18DFH   00005AH   BYTE   UNIT     CODE           ?C_C51STARTUP?2
FF18E0H   FF18E3H   000004H   BYTE   UNIT     CODE           ?C_C51STARTUP?3
FF18E4H   FF195BH   000078H   BYTE   UNIT     CODE           ?CO?OLED_SWITCH
FF195CH   FF1993H   000038H   BYTE   UNIT     CODE           ?CO?PAGE_SETTIME



OVERLAY MAP OF MODULE:   .\Objects\iWatch-v2.0 (oled_anim)


FUNCTION/MODULE                             EDATA_GROUP
--> CALLED FUNCTION/MODULE                  START  STOP
=======================================================
TM3_Isr?/Buzzer                             ----- -----
  +--> BuzzerOff?/Buzzer
  +--> PWMOff?/Buzzer
  +--> PWMOn?/Buzzer

BuzzerOff?/Buzzer                           ----- -----
  +--> PWMOff?/Buzzer

PWMOff?/Buzzer                              ----- -----

PWMOn?/Buzzer                               ----- -----

*** NEW ROOT ******************************

TM1_Isr?/iWatch                             ----- -----
  +--> pageTick?/pageManager
  +--> og_timeTick?/oled_gui
  +--> KeyScan?/iWatch
  +--> MCUSoftReset?/System
  +--> iWatchStatusUpdate?/iWatch

pageTick?/pageManager                       ----- -----

og_timeTick?/oled_gui                       ----- -----

KeyScan?/iWatch                             ----- -----

MCUSoftReset?/System                        ----- -----
  +--> Delay1ms?/Delay

Delay1ms?/Delay                             ----- -----

iWatchStatusUpdate?/iWatch                  ----- -----

*** NEW ROOT ******************************

INT0_Isr?/iWatch                            ----- -----

*** NEW ROOT ******************************

INT1_Isr?/iWatch                            ----- -----

*** NEW ROOT ******************************

INT2_Isr?/iWatch                            ----- -----

L251 LINKER/LOCATER V4.66.93.0                                                        08/24/2022  19:19:43  PAGE 8


*** NEW ROOT ******************************

INT3_Isr?/iWatch                            ----- -----

*** NEW ROOT ******************************

?C_C51STARTUP?1                             ----- -----

*** NEW ROOT ******************************

UART1_Isr?/page_ilink                       ----- -----

*** NEW ROOT ******************************

TM0_Isr?/page_stopwatch                     ----- -----

*** NEW ROOT ******************************

Uart4Isr?/Bluetooth                         ----- -----

*** NEW ROOT ******************************

?C_C51STARTUP                               ----- -----

*** NEW ROOT ******************************

?C_C51STARTUP?3                             ----- -----
  +--> main?/main

main?/main                                  ----- -----
  +--> iWatchInit?/iWatch
  +--> FeedWatchDog?/System
  +--> og_run?/oled_gui
  +--> pageRun?/pageManager
  +--> iWatchStatusHandle?/iWatch

iWatchInit?/iWatch                          ----- -----
  +--> SystemInit?/System
  +--> iWatchReadConfig?/iWatch
  +--> DisplayInit?/iWatch
  +--> RX8130CEInit?/RX8130CE
  +--> SensorInit?/iWatch
  +--> og_init?/oled_gui
  +--> pageInit?/pageManager

SystemInit?/System                          ----- -----
  +--> GPIOInit?/System
  +--> UartInit?/System
  +--> Uart4Init?/System
  +--> IIC_Init?/IIC
  +--> SPI_Init?/SPI
  +--> Timer1Init?/System
  +--> Timer0Init?/System
  +--> BuzzerInit?/Buzzer
  +--> IntInit?/System
  +--> ADC_Init?/System
  +--> Delay1ms?/Delay
  +--> EnableWatchDog?/System

GPIOInit?/System                            ----- -----

UartInit?/System                            ----- -----

Uart4Init?/System                           ----- -----

L251 LINKER/LOCATER V4.66.93.0                                                        08/24/2022  19:19:43  PAGE 9


IIC_Init?/IIC                               ----- -----

SPI_Init?/SPI                               ----- -----

Timer1Init?/System                          ----- -----

Timer0Init?/System                          ----- -----

BuzzerInit?/Buzzer                          ----- -----

IntInit?/System                             ----- -----

ADC_Init?/System                            ----- -----

EnableWatchDog?/System                      ----- -----

iWatchReadConfig?/iWatch                    07A7H 07AAH
  +--> EEPROM_read_n?/EEPROM
  +--> EEPROM_SectorErase?/EEPROM
  +--> EEPROM_write_n?/EEPROM

EEPROM_read_n?/EEPROM                       ----- -----
  +--> DisableEEPROM?/EEPROM

DisableEEPROM?/EEPROM                       ----- -----

EEPROM_SectorErase?/EEPROM                  ----- -----
  +--> DisableEEPROM?/EEPROM

EEPROM_write_n?/EEPROM                      ----- -----
  +--> DisableEEPROM?/EEPROM

DisplayInit?/iWatch                         ----- -----
  +--> OLED_Init?/oled
  +--> OLED_Inverse?/oled
  +--> OLED_Set_Brightness?/oled

OLED_Init?/oled                             ----- -----
  +--> Delay1ms?/Delay
  +--> OLED_WR_CMD?/oled
  +--> OLED_Clear?/oled

OLED_WR_CMD?/oled                           ----- -----
  +--> SPI_WriteByte?/SPI

SPI_WriteByte?/SPI                          ----- -----

OLED_Clear?/oled                            ----- -----
  +--> OLED_WR_DAT?/oled

OLED_WR_DAT?/oled                           ----- -----
  +--> SPI_WriteByte?/SPI

OLED_Inverse?/oled                          ----- -----
  +--> OLED_WR_CMD?/oled

OLED_Set_Brightness?/oled                   ----- -----
  +--> OLED_WR_CMD?/oled

RX8130CEInit?/RX8130CE                      ----- -----
  +--> RX8130CESetClockOuput?/RX8130CE
  +--> RX8130CEClearTimerFlag?/RX8130CE
  +--> RX8130CEClearAlarmFlag?/RX8130CE
  +--> RX8130CESetTimer?/RX8130CE

L251 LINKER/LOCATER V4.66.93.0                                                        08/24/2022  19:19:43  PAGE 10


RX8130CESetClockOuput?/RX8130CE             ----- -----
  +--> RX8130RegSetBit?/RX8130CE

RX8130RegSetBit?/RX8130CE                   ----- -----
  +--> Single_ReadIIC?/IIC
  +--> Single_WriteIIC?/IIC

Single_ReadIIC?/IIC                         ----- -----
  +--> I2C_Start?/IIC
  +--> I2C_SendByte?/IIC
  +--> I2C_RecvACK?/IIC
  +--> I2C_RecvByte?/IIC
  +--> I2C_SendNAK?/IIC
  +--> I2C_Stop?/IIC

I2C_Start?/IIC                              ----- -----
  +--> Wait?/IIC

Wait?/IIC                                   ----- -----

I2C_SendByte?/IIC                           ----- -----
  +--> Wait?/IIC

I2C_RecvACK?/IIC                            ----- -----
  +--> Wait?/IIC

I2C_RecvByte?/IIC                           ----- -----
  +--> Wait?/IIC

I2C_SendNAK?/IIC                            ----- -----
  +--> Wait?/IIC

I2C_Stop?/IIC                               ----- -----
  +--> Wait?/IIC

Single_WriteIIC?/IIC                        ----- -----
  +--> I2C_Start?/IIC
  +--> I2C_SendByte?/IIC
  +--> I2C_RecvACK?/IIC
  +--> I2C_Stop?/IIC

RX8130CEClearTimerFlag?/RX8130CE            ----- -----
  +--> RX8130RegSetBit?/RX8130CE

RX8130CEClearAlarmFlag?/RX8130CE            ----- -----
  +--> RX8130RegSetBit?/RX8130CE

RX8130CESetTimer?/RX8130CE                  ----- -----
  +--> RX8130RegSetBit?/RX8130CE
  +--> Single_WriteIIC?/IIC

SensorInit?/iWatch                          ----- -----
  +--> LSM6DSMInit?/LSM6DSM
  +--> LSM6DSMEnableAWT?/LSM6DSM
  +--> LSM6DSMEnablePedometer?/LSM6DSM
  +--> QMC5883LInit?/QMC5883L
  +--> QMC5883LSetCaliValue?/QMC5883L
  +--> BMP390Init?/BMP390

LSM6DSMInit?/LSM6DSM                        ----- -----
  +--> Delay1ms?/Delay
  +--> LSM6DSMCheckConnection?/LSM6DSM
  +--> LSM6DSMSoftReset?/LSM6DSM
  +--> LSM6DSMRSetRegisterBits?/LSM6DSM

L251 LINKER/LOCATER V4.66.93.0                                                        08/24/2022  19:19:43  PAGE 11


LSM6DSMCheckConnection?/LSM6DSM             ----- -----
  +--> LSM6DSMReadByte?/LSM6DSM

LSM6DSMReadByte?/LSM6DSM                    ----- -----
  +--> Single_ReadIIC?/IIC

LSM6DSMSoftReset?/LSM6DSM                   ----- -----
  +--> LSM6DSMRSetRegisterBits?/LSM6DSM
  +--> Delay1ms?/Delay

LSM6DSMRSetRegisterBits?/LSM6DSM            ----- -----
  +--> LSM6DSMReadByte?/LSM6DSM
  +--> LSM6DSMWriteByte?/LSM6DSM

LSM6DSMWriteByte?/LSM6DSM                   ----- -----
  +--> Single_WriteIIC?/IIC

LSM6DSMEnableAWT?/LSM6DSM                   ----- -----
  +--> LSM6DSMConfigAcc?/LSM6DSM
  +--> LSM6DSMEnableEMbeddedFunc?/LSM6DSM
  +--> Delay1ms?/Delay
  +--> LSM6DSMDisableEMbeddedFunc?/LSM6DSM
  +--> LSM6DSMWriteByte?/LSM6DSM
  +--> LSM6DSMRSetRegisterBits?/LSM6DSM

LSM6DSMConfigAcc?/LSM6DSM                   ----- -----
  +--> LSM6DSMWriteByte?/LSM6DSM

LSM6DSMEnableEMbeddedFunc?/LSM6DSM          ----- -----
  +--> LSM6DSMRSetRegisterBits?/LSM6DSM

LSM6DSMDisableEMbeddedFunc?/LSM6DSM         ----- -----
  +--> LSM6DSMRSetRegisterBits?/LSM6DSM

LSM6DSMEnablePedometer?/LSM6DSM             ----- -----
  +--> LSM6DSMWriteByte?/LSM6DSM
  +--> LSM6DSMConfigAcc?/LSM6DSM
  +--> LSM6DSMRSetRegisterBits?/LSM6DSM

QMC5883LInit?/QMC5883L                      ----- -----
  +--> Delay1ms?/Delay
  +--> QMC5883LCheckConnection?/QMC5883L
  +--> QMC5883L_Write_Byte?/QMC5883L

QMC5883LCheckConnection?/QMC5883L           ----- -----
  +--> QMC5883L_Read_Byte?/QMC5883L

QMC5883L_Read_Byte?/QMC5883L                ----- -----
  +--> Single_ReadIIC?/IIC

QMC5883L_Write_Byte?/QMC5883L               ----- -----
  +--> Single_WriteIIC?/IIC

QMC5883LSetCaliValue?/QMC5883L              ----- -----

BMP390Init?/BMP390                          ----- -----
  +--> Delay1ms?/Delay
  +--> BMP390CheckConnection?/BMP390
  +--> BMP390SoftReset?/BMP390
  +--> BMP390ReadCompensationParameter?/BMP390
  +--> BMP390WriteByte?/BMP390

BMP390CheckConnection?/BMP390               ----- -----
  +--> BMP390ReadByte?/BMP390

L251 LINKER/LOCATER V4.66.93.0                                                        08/24/2022  19:19:43  PAGE 12


BMP390ReadByte?/BMP390                      ----- -----
  +--> Single_ReadIIC?/IIC

BMP390SoftReset?/BMP390                     ----- -----
  +--> BMP390WriteByte?/BMP390
  +--> Delay1ms?/Delay

BMP390WriteByte?/BMP390                     ----- -----
  +--> Single_WriteIIC?/IIC

BMP390ReadCompensationParameter?/BMP390     07A7H 07BBH
  +--> I2C_Read_MultiBytes?/IIC

I2C_Read_MultiBytes?/IIC                    07BCH 07BFH
  +--> I2C_Start?/IIC
  +--> I2C_SendByte?/IIC
  +--> I2C_RecvACK?/IIC
  +--> I2C_RecvByte?/IIC
  +--> I2C_SendACK?/IIC
  +--> I2C_SendNAK?/IIC
  +--> I2C_Stop?/IIC

I2C_SendACK?/IIC                            ----- -----
  +--> Wait?/IIC

og_init?/oled_gui                           ----- -----
  +--> init_mempool?/INIT_MEM?
  +--> og_widget_init?/oled_widget
  +--> og_anim_init?/oled_anim

init_mempool?/INIT_MEM?                     ----- -----

og_widget_init?/oled_widget                 ----- -----

og_anim_init?/oled_anim                     ----- -----

pageInit?/pageManager                       ----- -----
  +--> pageRegister_page_watch?/page_watch
  +--> pageRegister_page_menu?/page_menu
  +--> pageRegister_page_timer?/page_stopwatch
  +--> pageRegister_page_hdc2080?/page_hdc2080
  +--> pageRegister_page_pedometer?/page_pedometer
  +--> pageRegister_page_bluetooth_serial?/page_btspp
  +--> pageRegister_page_compass?/page_compass
  +--> pageRegister_page_setting?/page_setting
  +--> pageRegister_page_settime?/page_settime
  +--> pageRegister_page_alarm?/page_alarm
  +--> pageRegister_page_flashlight?/page_flashlight
  +--> pageRegister_page_devinfo?/page_devInfo
  +--> pageRegister_page_ilink?/page_ilink
  +--> pageRegister_page_trexrunner?/page_trexrunner
  +--> pageRegister_page_snake?/page_snake
  +--> pageRegister_page_magcal?/page_magcal
  +--> pageOpenCurrentPage?/pageManager

pageRegister_page_watch?/page_watch         ----- -----
  +--> Setup?/page_watch
  +--> Loop?/page_watch
  +--> Exit?/page_watch
  +--> Event?/page_watch
  +--> pageRegister?/pageManager

Setup?/page_watch                           ----- -----
  +--> RX8130CEReadTime?/RX8130CE
  +--> SPRINTF?/SPRINTF?
L251 LINKER/LOCATER V4.66.93.0                                                        08/24/2022  19:19:43  PAGE 13


  +--> og_bmp_create?/oled_bmp
  +--> og_label_create?/oled_label
  +--> og_widget_setShow?/oled_widget
  +--> og_group_create?/oled_group
  +--> og_group_addWidget?/oled_group
  +--> og_group_setPosOffset?/oled_group
  +--> og_group_addAnimOffset?/oled_group

RX8130CEReadTime?/RX8130CE                  07A7H 07AEH
  +--> I2C_Read_MultiBytes?/IIC

SPRINTF?/SPRINTF?                           07B3H 07DAH
  +--> OUT/SPRINTF?

OUT/SPRINTF?                                ----- -----
  +--> PUTCH/SPRINTF?

PUTCH/SPRINTF?                              ----- -----

og_bmp_create?/oled_bmp                     07A7H 07AEH
  +--> og_widget_create?/oled_widget
  +--> og_widget_add?/oled_widget

og_widget_create?/oled_widget               ----- -----
  +--> malloc?/MALLOC?

malloc?/MALLOC?                             ----- -----

og_widget_add?/oled_widget                  ----- -----

og_label_create?/oled_label                 07A7H 07ABH
  +--> og_widget_create?/oled_widget
  +--> malloc?/MALLOC?
  +--> og_widget_add?/oled_widget

og_widget_setShow?/oled_widget              ----- -----

og_group_create?/oled_group                 ----- -----
  +--> malloc?/MALLOC?

og_group_addWidget?/oled_group              ----- -----

og_group_setPosOffset?/oled_group           07A7H 07AFH
  +--> og_widget_setPosOffset?/oled_widget

og_widget_setPosOffset?/oled_widget         ----- -----

og_group_addAnimOffset?/oled_group          07A9H 07B7H
  +--> og_anim_create_offset?/oled_anim

og_anim_create_offset?/oled_anim            07B8H 07C1H
  +--> malloc?/MALLOC?

Loop?/page_watch                            ----- -----
  +--> pageExecuteRate?/pageManager
  +--> og_widget_setShow?/oled_widget
  +--> og_widget_setPos?/oled_widget
  +--> RX8130CEReadTime?/RX8130CE
  +--> SPRINTF?/SPRINTF?
  +--> og_label_setText?/oled_label
  +--> iWatchGetBatteryLife?/iWatch
  +--> DrawBatteryIcon?/iWatch
  +--> og_bmp_setBmp?/oled_bmp
  +--> DisplayTimeInAnim?/page_watch

L251 LINKER/LOCATER V4.66.93.0                                                        08/24/2022  19:19:43  PAGE 14


pageExecuteRate?/pageManager                ----- -----

og_widget_setPos?/oled_widget               ----- -----

og_label_setText?/oled_label                07B6H 07C6H
  +--> str_cmp?/oled_label
  +--> realloc?/REALLOC?
  +--> str_cpy?/oled_label

str_cmp?/oled_label                         ----- -----

realloc?/REALLOC?                           07C7H 07CCH
  +--> malloc?/MALLOC?
  +--> memcpy??/MEMCPY?
  +--> free?/FREE?

memcpy??/MEMCPY?                            ----- -----

free?/FREE?                                 ----- -----

str_cpy?/oled_label                         ----- -----

iWatchGetBatteryLife?/iWatch                07A7H 07ABH
  +--> GetBatVoltage?/System

GetBatVoltage?/System                       ----- -----
  +--> Get_ADC12bitResult?/System

Get_ADC12bitResult?/System                  ----- -----

DrawBatteryIcon?/iWatch                     ----- -----

og_bmp_setBmp?/oled_bmp                     ----- -----

DisplayTimeInAnim?/page_watch               ----- -----

Exit?/page_watch                            ----- -----
  +--> delet?/page_watch
  +--> og_group_addAnimOffset?/oled_group

delet?/page_watch                           ----- -----
  +--> og_group_delet?/oled_group
  +--> pageSetStatus?/pageManager

og_group_delet?/oled_group                  07A7H 07ABH
  +--> og_widget_delet?/oled_widget
  +--> free?/FREE?

og_widget_delet?/oled_widget                ----- -----
  +--> free?/FREE?

pageSetStatus?/pageManager                  ----- -----

Event?/page_watch                           ----- -----
  +--> iWatchSleep?/iWatch
  +--> pageShift?/pageManager

iWatchSleep?/iWatch                         ----- -----

pageShift?/pageManager                      ----- -----

pageRegister?/pageManager                   07A7H 07B6H

pageRegister_page_menu?/page_menu           ----- -----
  +--> Setup?/page_menu
L251 LINKER/LOCATER V4.66.93.0                                                        08/24/2022  19:19:43  PAGE 15


  +--> Loop?/page_menu
  +--> Exit?/page_menu
  +--> Event?/page_menu
  +--> pageRegister?/pageManager

Setup?/page_menu                            ----- -----
  +--> og_group_create?/oled_group
  +--> og_bmp_create?/oled_bmp
  +--> og_group_addWidget?/oled_group
  +--> og_group_setPosOffset?/oled_group
  +--> og_group_addAnimOffset?/oled_group
  +--> og_label_create?/oled_label
  +--> og_label_setText?/oled_label
  +--> og_widget_setPos?/oled_widget
  +--> SPRINTF?/SPRINTF?

Loop?/page_menu                             ----- -----
  +--> pageExecuteRate?/pageManager
  +--> RX8130CEReadTime?/RX8130CE
  +--> iWatchGetBatteryLife?/iWatch
  +--> SPRINTF?/SPRINTF?
  +--> og_label_setText?/oled_label
  +--> DrawBatteryIcon?/iWatch
  +--> og_bmp_setBmp?/oled_bmp

Exit?/page_menu                             ----- -----
  +--> og_group_addAnimOffset?/oled_group
  +--> delet?/page_menu

delet?/page_menu                            ----- -----
  +--> og_group_delet?/oled_group
  +--> pageSetStatus?/pageManager

Event?/page_menu                            ----- -----
  +--> pageShift?/pageManager
  +--> og_group_addAnimOffset?/oled_group
  +--> SPRINTF?/SPRINTF?
  +--> og_label_setText?/oled_label
  +--> og_widget_setPos?/oled_widget

pageRegister_page_timer?/page_stopwatch     ----- -----
  +--> Setup?/page_stopwatch
  +--> Loop?/page_stopwatch
  +--> Exit?/page_stopwatch
  +--> Event?/page_stopwatch
  +--> pageRegister?/pageManager

Setup?/page_stopwatch                       ----- -----
  +--> og_label_create?/oled_label
  +--> og_bmp_create?/oled_bmp
  +--> og_bmp_setBmp?/oled_bmp
  +--> og_widget_setShow?/oled_widget
  +--> SPRINTF?/SPRINTF?
  +--> og_label_setText?/oled_label
  +--> og_widget_setPos?/oled_widget
  +--> og_group_create?/oled_group
  +--> og_group_addWidget?/oled_group
  +--> og_group_setPosOffset?/oled_group
  +--> og_group_addAnimOffset?/oled_group

Loop?/page_stopwatch                        ----- -----
  +--> pageExecuteRate?/pageManager
  +--> ?C?ULIDIV?/?C?ULDIV?
  +--> SPRINTF?/SPRINTF?
  +--> og_label_setText?/oled_label
L251 LINKER/LOCATER V4.66.93.0                                                        08/24/2022  19:19:43  PAGE 16



?C?ULIDIV?/?C?ULDIV?                        ----- -----

Exit?/page_stopwatch                        ----- -----
  +--> delet?/page_stopwatch
  +--> og_group_addAnimOffset?/oled_group

delet?/page_stopwatch                       ----- -----
  +--> og_group_delet?/oled_group
  +--> pageSetStatus?/pageManager

Event?/page_stopwatch                       ----- -----
  +--> pageShift?/pageManager
  +--> RX8130CESetClockOuput?/RX8130CE
  +--> og_bmp_setBmp?/oled_bmp
  +--> SPRINTF?/SPRINTF?
  +--> og_label_setText?/oled_label
  +--> og_widget_setShow?/oled_widget
  +--> og_anim_create?/oled_anim
  +--> og_widget_setPos?/oled_widget

og_anim_create?/oled_anim                   07A7H 07B0H
  +--> malloc?/MALLOC?

pageRegister_page_hdc2080?/page_hdc2080     ----- -----
  +--> Setup?/page_hdc2080
  +--> Loop?/page_hdc2080
  +--> Exit?/page_hdc2080
  +--> Event?/page_hdc2080
  +--> pageRegister?/pageManager

Setup?/page_hdc2080                         ----- -----
  +--> og_label_create?/oled_label
  +--> og_label_setText?/oled_label
  +--> og_group_create?/oled_group
  +--> og_group_addWidget?/oled_group
  +--> og_group_setPosOffset?/oled_group
  +--> og_group_addAnimOffset?/oled_group
  +--> HTU21DStart?/HTU21D
  +--> BMP390SetMode?/BMP390

HTU21DStart?/HTU21D                         ----- -----

BMP390SetMode?/BMP390                       ----- -----
  +--> BMP390WriteByte?/BMP390

Loop?/page_hdc2080                          ----- -----
  +--> pageExecuteRate?/pageManager
  +--> HTU21DGetTemperature?/HTU21D
  +--> SPRINTF?/SPRINTF?
  +--> og_label_setText?/oled_label
  +--> HTU21DGetHumidity?/HTU21D
  +--> BMP390GetSensorData?/BMP390

HTU21DGetTemperature?/HTU21D                ----- -----
  +--> HTU21DSendCommand?/HTU21D
  +--> HTU21DReadData?/HTU21D

HTU21DSendCommand?/HTU21D                   ----- -----
  +--> I2C_Start?/IIC
  +--> I2C_SendByte?/IIC
  +--> I2C_RecvACK?/IIC
  +--> I2C_Stop?/IIC

HTU21DReadData?/HTU21D                      ----- -----
L251 LINKER/LOCATER V4.66.93.0                                                        08/24/2022  19:19:43  PAGE 17


  +--> I2C_Start?/IIC
  +--> I2C_SendByte?/IIC
  +--> I2C_RecvACK?/IIC
  +--> I2C_RecvByte?/IIC
  +--> I2C_SendACK?/IIC
  +--> I2C_SendNAK?/IIC
  +--> I2C_Stop?/IIC

HTU21DGetHumidity?/HTU21D                   ----- -----
  +--> HTU21DSendCommand?/HTU21D
  +--> HTU21DReadData?/HTU21D

BMP390GetSensorData?/BMP390                 ----- -----
  +--> BMP390ReadSensorRawData?/BMP390
  +--> compensate_temperature?/BMP390
  +--> compensate_pressure?/BMP390

BMP390ReadSensorRawData?/BMP390             07A7H 07ACH
  +--> I2C_Read_MultiBytes?/IIC

compensate_temperature?/BMP390              ----- -----

compensate_pressure?/BMP390                 ----- -----

Exit?/page_hdc2080                          ----- -----
  +--> BMP390SetMode?/BMP390
  +--> delet?/page_hdc2080
  +--> og_group_addAnimOffset?/oled_group

delet?/page_hdc2080                         ----- -----
  +--> og_group_delet?/oled_group
  +--> pageSetStatus?/pageManager

Event?/page_hdc2080                         ----- -----
  +--> pageShift?/pageManager

pageRegister_page_pedometer?/page_pedome+   ----- -----
... ter
  +--> Setup?/page_pedometer
  +--> Loop?/page_pedometer
  +--> Exit?/page_pedometer
  +--> Event?/page_pedometer
  +--> pageRegister?/pageManager

Setup?/page_pedometer                       ----- -----
  +--> og_label_create?/oled_label
  +--> og_label_setText?/oled_label
  +--> og_canvas_create?/oled_canvas
  +--> og_group_create?/oled_group
  +--> og_group_addWidget?/oled_group
  +--> og_group_setPosOffset?/oled_group
  +--> og_group_addAnimOffset?/oled_group

og_canvas_create?/oled_canvas               07A7H 07ACH
  +--> og_widget_create?/oled_widget
  +--> calloc?/CALLOC?
  +--> og_widget_add?/oled_widget

calloc?/CALLOC?                             07BFH 07C2H
  +--> malloc?/MALLOC?
  +--> memset??/MEMSET?

memset??/MEMSET?                            ----- -----

Loop?/page_pedometer                        07A7H 07B2H
L251 LINKER/LOCATER V4.66.93.0                                                        08/24/2022  19:19:43  PAGE 18


  +--> pageExecuteRate?/pageManager
  +--> LSM6DSMGetCurrentStep?/LSM6DSM
  +--> SPRINTF?/SPRINTF?
  +--> og_label_setText?/oled_label
  +--> og_widget_setPos?/oled_widget
  +--> og_canvas_clear?/oled_canvas
  +--> og_canvas_drawText?/oled_canvas
  +--> og_canvas_drawRectangle?/oled_canvas

LSM6DSMGetCurrentStep?/LSM6DSM              ----- -----
  +--> LSM6DSMReadByte?/LSM6DSM

og_canvas_clear?/oled_canvas                ----- -----

og_canvas_drawText?/oled_canvas             07B3H 07B7H
  +--> GT20L16S1YGetCharASCII_5X7?/GT20L16S1Y

GT20L16S1YGetCharASCII_5X7?/GT20L16S1Y      07BFH 07C2H
  +--> SPI_WriteByte?/SPI
  +--> SPI_WriteMultiBytes?/SPI
  +--> SPI_ReadMultiBytes?/SPI

SPI_WriteMultiBytes?/SPI                    ----- -----

SPI_ReadMultiBytes?/SPI                     ----- -----

og_canvas_drawRectangle?/oled_canvas        07B3H 07B6H
  +--> og_canvas_drawLine?/oled_canvas

og_canvas_drawLine?/oled_canvas             07B7H 07B8H

Exit?/page_pedometer                        ----- -----
  +--> og_group_hideOffScreenWidget?/oled_group
  +--> delet?/page_pedometer
  +--> og_group_addAnimOffset?/oled_group

og_group_hideOffScreenWidget?/oled_group    07A7H 07AFH
  +--> og_widget_setShow?/oled_widget

delet?/page_pedometer                       ----- -----
  +--> og_group_delet?/oled_group
  +--> pageSetStatus?/pageManager

Event?/page_pedometer                       ----- -----
  +--> pageShift?/pageManager
  +--> og_group_addAnimOffset?/oled_group

pageRegister_page_bluetooth_serial?/page+   ----- -----
... _btspp
  +--> Setup?/page_btspp
  +--> Loop?/page_btspp
  +--> Exit?/page_btspp
  +--> Event?/page_btspp
  +--> pageRegister?/pageManager

Setup?/page_btspp                           ----- -----
  +--> og_label_create?/oled_label
  +--> og_anim_create?/oled_anim
  +--> BtOn?/Bluetooth

BtOn?/Bluetooth                             ----- -----

Loop?/page_btspp                            ----- -----
  +--> pageExecuteRate?/pageManager
  +--> iWatchKeepActive?/iWatch
L251 LINKER/LOCATER V4.66.93.0                                                        08/24/2022  19:19:43  PAGE 19


  +--> BtCheckConnection?/Bluetooth
  +--> lableAppendTextWithRoll?/page_btspp
  +--> BtReceiveString?/Bluetooth

iWatchKeepActive?/iWatch                    ----- -----

BtCheckConnection?/Bluetooth                ----- -----

lableAppendTextWithRoll?/page_btspp         ----- -----
  +--> og_label_appendText?/oled_label
  +--> og_anim_create_offset?/oled_anim

og_label_appendText?/oled_label             07A7H 07B5H
  +--> og_label_setText?/oled_label
  +--> str_len?/oled_label
  +--> realloc?/REALLOC?
  +--> str_cpy?/oled_label

str_len?/oled_label                         ----- -----

BtReceiveString?/Bluetooth                  ----- -----

Exit?/page_btspp                            ----- -----
  +--> BtOff?/Bluetooth
  +--> delet?/page_btspp
  +--> og_anim_create?/oled_anim

BtOff?/Bluetooth                            ----- -----

delet?/page_btspp                           ----- -----
  +--> og_widget_delet?/oled_widget
  +--> pageSetStatus?/pageManager

Event?/page_btspp                           ----- -----
  +--> pageShift?/pageManager
  +--> lableRollUp?/page_btspp
  +--> og_label_clear?/oled_label
  +--> og_widget_setPos?/oled_widget
  +--> lableRollDown?/page_btspp
  +--> og_anim_create?/oled_anim

lableRollUp?/page_btspp                     ----- -----
  +--> og_anim_create_offset?/oled_anim

og_label_clear?/oled_label                  ----- -----
  +--> realloc?/REALLOC?

lableRollDown?/page_btspp                   ----- -----
  +--> og_anim_create_offset?/oled_anim

pageRegister_page_compass?/page_compass     ----- -----
  +--> Setup?/page_compass
  +--> Loop?/page_compass
  +--> Exit?/page_compass
  +--> Event?/page_compass
  +--> pageRegister?/pageManager

Setup?/page_compass                         ----- -----
  +--> og_group_create?/oled_group
  +--> og_label_create?/oled_label
  +--> og_label_setText?/oled_label
  +--> og_group_addWidget?/oled_group
  +--> og_bmp_create?/oled_bmp
  +--> og_canvas_create?/oled_canvas
  +--> og_group_setPosOffset?/oled_group
L251 LINKER/LOCATER V4.66.93.0                                                        08/24/2022  19:19:43  PAGE 20


  +--> og_group_addAnimOffset?/oled_group
  +--> QMC5883LSetMode?/QMC5883L
  +--> LSM6DSMConfigAcc?/LSM6DSM
  +--> LSM6DSMConfigGyr?/LSM6DSM

QMC5883LSetMode?/QMC5883L                   ----- -----
  +--> QMC5883L_Read_Byte?/QMC5883L
  +--> QMC5883L_Write_Byte?/QMC5883L

LSM6DSMConfigGyr?/LSM6DSM                   ----- -----
  +--> LSM6DSMWriteByte?/LSM6DSM

Loop?/page_compass                          07A7H 07AAH
  +--> pageExecuteRate?/pageManager
  +--> QMC5883LRead?/QMC5883L
  +--> QMC5883LCalYaw?/QMC5883L
  +--> SPRINTF?/SPRINTF?
  +--> og_label_setText?/oled_label
  +--> og_widget_setAlignment?/oled_widget
  +--> og_widget_setPos?/oled_widget
  +--> og_canvas_clear?/oled_canvas
  +--> og_canvas_drawDot?/oled_canvas

QMC5883LRead?/QMC5883L                      07ABH 07B0H
  +--> I2C_Read_MultiBytes?/IIC

QMC5883LCalYaw?/QMC5883L                    07ABH 07BEH
  +--> atan2??/ATAN2?

atan2??/ATAN2?                              ----- -----

og_widget_setAlignment?/oled_widget         ----- -----

og_canvas_drawDot?/oled_canvas              ----- -----

Exit?/page_compass                          ----- -----
  +--> QMC5883LSetMode?/QMC5883L
  +--> LSM6DSMConfigAcc?/LSM6DSM
  +--> LSM6DSMConfigGyr?/LSM6DSM
  +--> delet?/page_compass
  +--> og_group_addAnimOffset?/oled_group

delet?/page_compass                         ----- -----
  +--> og_group_delet?/oled_group
  +--> pageSetStatus?/pageManager

Event?/page_compass                         ----- -----
  +--> pageShift?/pageManager

pageRegister_page_setting?/page_setting     ----- -----
  +--> Setup?/page_setting
  +--> Loop?/page_setting
  +--> Exit?/page_setting
  +--> Event?/page_setting
  +--> pageRegister?/pageManager

Setup?/page_setting                         ----- -----
  +--> iWatchReadConfig?/iWatch
  +--> og_group_create?/oled_group
  +--> og_label_create?/oled_label
  +--> og_label_setText?/oled_label
  +--> og_group_addWidget?/oled_group
  +--> og_slider_create?/oled_slider
  +--> og_switch_create?/oled_switch
  +--> og_group_setPosOffset?/oled_group
L251 LINKER/LOCATER V4.66.93.0                                                        08/24/2022  19:19:43  PAGE 21


  +--> og_group_addAnimOffset?/oled_group

og_slider_create?/oled_slider               07A7H 07B2H
  +--> og_widget_create?/oled_widget
  +--> malloc?/MALLOC?
  +--> og_slider_setValue?/oled_slider
  +--> og_widget_add?/oled_widget

og_slider_setValue?/oled_slider             ----- -----

og_switch_create?/oled_switch               07A7H 07ACH
  +--> og_widget_create?/oled_widget
  +--> og_widget_add?/oled_widget

Loop?/page_setting                          ----- -----
  +--> pageExecuteRate?/pageManager

Exit?/page_setting                          ----- -----
  +--> iWatchSaveConfig?/iWatch
  +--> og_group_hideOffScreenWidget?/oled_group
  +--> delet?/page_setting
  +--> og_group_addAnimOffset?/oled_group

iWatchSaveConfig?/iWatch                    ----- -----
  +--> EEPROM_SectorErase?/EEPROM
  +--> EEPROM_write_n?/EEPROM

delet?/page_setting                         ----- -----
  +--> og_group_delet?/oled_group
  +--> pageSetStatus?/pageManager

Event?/page_setting                         ----- -----
  +--> og_group_getFocusWidget?/oled_group
  +--> pageShift?/pageManager
  +--> og_group_getFocusIndex?/oled_group
  +--> og_switch_setStatus?/oled_switch
  +--> OLED_Inverse?/oled
  +--> LSM6DSMDisableAWT?/LSM6DSM
  +--> LSM6DSMEnableAWT?/LSM6DSM
  +--> LSM6DSMDisablePedometer?/LSM6DSM
  +--> LSM6DSMEnablePedometer?/LSM6DSM
  +--> Bee?/Buzzer
  +--> og_group_focusWidget?/oled_group
  +--> og_slider_setValue?/oled_slider
  +--> OLED_Set_Brightness?/oled

og_group_getFocusWidget?/oled_group         ----- -----

og_group_getFocusIndex?/oled_group          ----- -----

og_switch_setStatus?/oled_switch            ----- -----

LSM6DSMDisableAWT?/LSM6DSM                  ----- -----
  +--> LSM6DSMRSetRegisterBits?/LSM6DSM
  +--> LSM6DSMDisableEMbeddedFunc?/LSM6DSM
  +--> LSM6DSMConfigAcc?/LSM6DSM

LSM6DSMDisablePedometer?/LSM6DSM            ----- -----
  +--> LSM6DSMRSetRegisterBits?/LSM6DSM
  +--> LSM6DSMDisableEMbeddedFunc?/LSM6DSM
  +--> LSM6DSMConfigAcc?/LSM6DSM

Bee?/Buzzer                                 ----- -----
  +--> PWMOn?/Buzzer

L251 LINKER/LOCATER V4.66.93.0                                                        08/24/2022  19:19:43  PAGE 22


og_group_focusWidget?/oled_group            07A7H 07A8H
  +--> og_group_addAnimOffset?/oled_group

pageRegister_page_settime?/page_settime     ----- -----
  +--> Setup?/page_settime
  +--> Loop?/page_settime
  +--> Exit?/page_settime
  +--> Event?/page_settime
  +--> pageRegister?/pageManager

Setup?/page_settime                         ----- -----
  +--> RX8130CEReadTime?/RX8130CE
  +--> og_group_create?/oled_group
  +--> og_label_create?/oled_label
  +--> og_group_addWidget?/oled_group
  +--> og_label_setText?/oled_label
  +--> og_group_setPosOffset?/oled_group
  +--> og_group_addAnimOffset?/oled_group

Loop?/page_settime                          ----- -----
  +--> pageExecuteRate?/pageManager
  +--> SPRINTF?/SPRINTF?
  +--> og_label_setText?/oled_label

Exit?/page_settime                          ----- -----
  +--> RX8130CEWriteTime?/RX8130CE
  +--> delet?/page_settime
  +--> og_group_addAnimOffset?/oled_group

RX8130CEWriteTime?/RX8130CE                 07ABH 07B1H
  +--> I2C_Write_MultiBytes?/IIC

I2C_Write_MultiBytes?/IIC                   07B2H 07B5H
  +--> I2C_Start?/IIC
  +--> I2C_SendByte?/IIC
  +--> I2C_RecvACK?/IIC
  +--> I2C_Stop?/IIC

delet?/page_settime                         ----- -----
  +--> og_group_delet?/oled_group
  +--> pageSetStatus?/pageManager

Event?/page_settime                         ----- -----
  +--> pageShift?/pageManager
  +--> og_group_getFocusIndex?/oled_group
  +--> og_group_focusWidget?/oled_group

pageRegister_page_alarm?/page_alarm         ----- -----
  +--> Setup?/page_alarm
  +--> Loop?/page_alarm
  +--> Exit?/page_alarm
  +--> Event?/page_alarm
  +--> pageRegister?/pageManager

Setup?/page_alarm                           ----- -----
  +--> og_label_create?/oled_label
  +--> og_label_setText?/oled_label
  +--> og_widget_setPos?/oled_widget
  +--> og_widget_setShow?/oled_widget
  +--> og_group_create?/oled_group
  +--> og_group_addWidget?/oled_group
  +--> og_group_setPosOffset?/oled_group
  +--> og_group_addAnimOffset?/oled_group

Loop?/page_alarm                            ----- -----
L251 LINKER/LOCATER V4.66.93.0                                                        08/24/2022  19:19:43  PAGE 23


  +--> pageExecuteRate?/pageManager
  +--> og_label_setText?/oled_label
  +--> og_widget_setPos?/oled_widget
  +--> SPRINTF?/SPRINTF?

Exit?/page_alarm                            ----- -----
  +--> RX8130CESetAlarm?/RX8130CE
  +--> iWatchSaveConfig?/iWatch
  +--> delet?/page_alarm
  +--> og_group_addAnimOffset?/oled_group

RX8130CESetAlarm?/RX8130CE                  ----- -----
  +--> RX8130RegSetBit?/RX8130CE
  +--> Single_WriteIIC?/IIC

delet?/page_alarm                           ----- -----
  +--> og_group_delet?/oled_group
  +--> pageSetStatus?/pageManager

Event?/page_alarm                           ----- -----
  +--> pageShift?/pageManager
  +--> og_group_focusWidget?/oled_group
  +--> og_group_getFocusIndex?/oled_group
  +--> og_label_setText?/oled_label
  +--> og_anim_create?/oled_anim
  +--> og_widget_setShow?/oled_widget
  +--> showText6?/page_alarm

showText6?/page_alarm                       ----- -----
  +--> og_widget_setShow?/oled_widget

pageRegister_page_flashlight?/page_flash+   ----- -----
... light
  +--> Setup?/page_flashlight
  +--> Loop?/page_flashlight
  +--> Exit?/page_flashlight
  +--> Event?/page_flashlight
  +--> pageRegister?/pageManager

Setup?/page_flashlight                      ----- -----
  +--> og_label_create?/oled_label
  +--> og_label_setText?/oled_label
  +--> og_widget_setPos?/oled_widget
  +--> og_anim_create_offset?/oled_anim
  +--> OLED_Inverse?/oled
  +--> OLED_Set_Brightness?/oled

Loop?/page_flashlight                       ----- -----
  +--> iWatchKeepActive?/iWatch
  +--> pageExecuteRate?/pageManager
  +--> OLED_Inverse?/oled

Exit?/page_flashlight                       ----- -----
  +--> OLED_setBreathing?/oled
  +--> OLED_Inverse?/oled
  +--> OLED_Set_Brightness?/oled
  +--> delet?/page_flashlight
  +--> og_anim_create_offset?/oled_anim

OLED_setBreathing?/oled                     ----- -----
  +--> OLED_WR_CMD?/oled

delet?/page_flashlight                      ----- -----
  +--> og_widget_delet?/oled_widget
  +--> pageSetStatus?/pageManager
L251 LINKER/LOCATER V4.66.93.0                                                        08/24/2022  19:19:43  PAGE 24



Event?/page_flashlight                      ----- -----
  +--> pageShift?/pageManager
  +--> OLED_Inverse?/oled
  +--> SPRINTF?/SPRINTF?
  +--> og_label_setText?/oled_label
  +--> og_widget_setPos?/oled_widget

pageRegister_page_devinfo?/page_devInfo     ----- -----
  +--> Setup?/page_devInfo
  +--> Loop?/page_devInfo
  +--> Exit?/page_devInfo
  +--> Event?/page_devInfo
  +--> pageRegister?/pageManager

Setup?/page_devInfo                         ----- -----
  +--> og_group_create?/oled_group
  +--> og_label_create?/oled_label
  +--> og_label_setText?/oled_label
  +--> og_widget_setAlignment?/oled_widget
  +--> og_group_addWidget?/oled_group
  +--> og_group_setPosOffset?/oled_group
  +--> og_group_addAnimOffset?/oled_group

Loop?/page_devInfo                          ----- -----
  +--> pageExecuteRate?/pageManager
  +--> SPRINTF?/SPRINTF?
  +--> og_label_setText?/oled_label
  +--> og_widget_setAlignment?/oled_widget
  +--> GetBatVoltage?/System

Exit?/page_devInfo                          ----- -----
  +--> og_group_hideOffScreenWidget?/oled_group
  +--> delet?/page_devInfo
  +--> og_group_addAnimOffset?/oled_group

delet?/page_devInfo                         ----- -----
  +--> og_group_delet?/oled_group
  +--> pageSetStatus?/pageManager

Event?/page_devInfo                         ----- -----
  +--> pageShift?/pageManager
  +--> og_group_addAnimOffset?/oled_group

pageRegister_page_ilink?/page_ilink         ----- -----
  +--> Setup?/page_ilink
  +--> Loop?/page_ilink
  +--> Exit?/page_ilink
  +--> Event?/page_ilink
  +--> pageRegister?/pageManager

Setup?/page_ilink                           ----- -----
  +--> og_label_create?/oled_label
  +--> og_label_setText?/oled_label
  +--> og_group_create?/oled_group
  +--> og_group_addWidget?/oled_group
  +--> og_group_setPosOffset?/oled_group
  +--> og_group_addAnimOffset?/oled_group
  +--> HTU21DStart?/HTU21D
  +--> BMP390SetMode?/BMP390
  +--> QMC5883LSetMode?/QMC5883L
  +--> LSM6DSMConfigAcc?/LSM6DSM
  +--> LSM6DSMConfigGyr?/LSM6DSM
  +--> Uart1Reset?/page_ilink
  +--> BtOn?/Bluetooth
L251 LINKER/LOCATER V4.66.93.0                                                        08/24/2022  19:19:43  PAGE 25



Uart1Reset?/page_ilink                      ----- -----

Loop?/page_ilink                            ----- -----
  +--> iWatchKeepActive?/iWatch
  +--> CommandProc?/page_ilink
  +--> pageExecuteRate?/pageManager
  +--> HTU21DGetTemperature?/HTU21D
  +--> HTU21DGetHumidity?/HTU21D
  +--> SPRINTF?/SPRINTF?
  +--> MuxSendString?/page_ilink
  +--> BMP390GetSensorData?/BMP390
  +--> LSM6DSMReadGYRAndACC?/LSM6DSM
  +--> QMC5883LRead?/QMC5883L
  +--> BtReceiveString?/Bluetooth
  +--> Uart1SendString?/page_ilink
  +--> BtSendString?/Bluetooth

CommandProc?/page_ilink                     07A7H 07AAH
  +--> DecVaList?/page_ilink
  +--> STRCMP??/STRCMP??
  +--> atoi??/ATOI?
  +--> RX8130CEWriteTime?/RX8130CE
  +--> OLED_Set_Brightness?/oled
  +--> OLED_Inverse?/oled
  +--> RX8130CESetAlarm?/RX8130CE
  +--> SPRINTF?/SPRINTF?
  +--> MuxSendString?/page_ilink

DecVaList?/page_ilink                       ----- -----

STRCMP??/STRCMP??                           ----- -----

atoi??/ATOI?                                ----- -----
  +--> isspace??/ISSPACE?
  +--> isdigit??/ISDIGIT?

isspace??/ISSPACE?                          ----- -----

isdigit??/ISDIGIT?                          ----- -----

MuxSendString?/page_ilink                   ----- -----
  +--> Uart1SendString?/page_ilink
  +--> BtSendString?/Bluetooth

Uart1SendString?/page_ilink                 ----- -----

BtSendString?/Bluetooth                     ----- -----
  +--> Uart4SendChar?/Bluetooth

Uart4SendChar?/Bluetooth                    ----- -----

LSM6DSMReadGYRAndACC?/LSM6DSM               07A7H 07B2H
  +--> I2C_Read_MultiBytes?/IIC

Exit?/page_ilink                            ----- -----
  +--> iWatchSaveConfig?/iWatch
  +--> BMP390SetMode?/BMP390
  +--> QMC5883LSetMode?/QMC5883L
  +--> LSM6DSMConfigAcc?/LSM6DSM
  +--> LSM6DSMConfigGyr?/LSM6DSM
  +--> BtOff?/Bluetooth
  +--> delet?/page_ilink
  +--> og_group_addAnimOffset?/oled_group

L251 LINKER/LOCATER V4.66.93.0                                                        08/24/2022  19:19:43  PAGE 26


delet?/page_ilink                           ----- -----
  +--> og_group_delet?/oled_group
  +--> pageSetStatus?/pageManager

Event?/page_ilink                           ----- -----
  +--> pageShift?/pageManager
  +--> og_label_setText?/oled_label
  +--> Uart1Reset?/page_ilink

pageRegister_page_trexrunner?/page_trexr+   ----- -----
... unner
  +--> Setup?/page_trexrunner
  +--> Loop?/page_trexrunner
  +--> Exit?/page_trexrunner
  +--> Event?/page_trexrunner
  +--> pageRegister?/pageManager

Setup?/page_trexrunner                      ----- -----
  +--> og_label_create?/oled_label
  +--> og_label_setText?/oled_label
  +--> og_widget_setAlignment?/oled_widget
  +--> og_widget_setShow?/oled_widget
  +--> og_bmp_create?/oled_bmp
  +--> og_group_create?/oled_group
  +--> og_group_addWidget?/oled_group
  +--> og_group_setPosOffset?/oled_group
  +--> og_group_addAnimOffset?/oled_group
  +--> srand??/RAND?

srand??/RAND?                               ----- -----

Loop?/page_trexrunner                       ----- -----
  +--> pageExecuteRate?/pageManager
  +--> iWatchKeepActive?/iWatch
  +--> Bee?/Buzzer
  +--> og_widget_setShow?/oled_widget
  +--> og_anim_create?/oled_anim
  +--> rand??/RAND?
  +--> SPRINTF?/SPRINTF?
  +--> og_label_setText?/oled_label

rand??/RAND?                                ----- -----

Exit?/page_trexrunner                       ----- -----
  +--> delet?/page_trexrunner
  +--> og_group_addAnimOffset?/oled_group

delet?/page_trexrunner                      ----- -----
  +--> og_group_delet?/oled_group
  +--> pageSetStatus?/pageManager

Event?/page_trexrunner                      ----- -----
  +--> pageShift?/pageManager
  +--> anim_jump?/page_trexrunner

anim_jump?/page_trexrunner                  ----- -----
  +--> anim_fall?/page_trexrunner
  +--> og_anim_create?/oled_anim

anim_fall?/page_trexrunner                  ----- -----
  +--> og_anim_create?/oled_anim

pageRegister_page_snake?/page_snake         ----- -----
  +--> Setup?/page_snake
  +--> Loop?/page_snake
L251 LINKER/LOCATER V4.66.93.0                                                        08/24/2022  19:19:43  PAGE 27


  +--> Exit?/page_snake
  +--> Event?/page_snake
  +--> pageRegister?/pageManager

Setup?/page_snake                           ----- -----
  +--> og_label_create?/oled_label
  +--> og_label_setText?/oled_label
  +--> og_widget_setAlignment?/oled_widget
  +--> og_widget_setShow?/oled_widget
  +--> og_canvas_create?/oled_canvas
  +--> og_canvas_drawRectangle?/oled_canvas
  +--> og_group_create?/oled_group
  +--> og_group_addWidget?/oled_group
  +--> og_group_setPosOffset?/oled_group
  +--> og_group_addAnimOffset?/oled_group
  +--> LSM6DSMConfigAcc?/LSM6DSM
  +--> LSM6DSMConfigGyr?/LSM6DSM
  +--> srand??/RAND?

Loop?/page_snake                            ----- -----
  +--> pageExecuteRate?/pageManager
  +--> iWatchKeepActive?/iWatch
  +--> og_canvas_clear?/oled_canvas
  +--> og_canvas_drawRectangle?/oled_canvas
  +--> SPRINTF?/SPRINTF?
  +--> og_label_setText?/oled_label
  +--> og_widget_setShow?/oled_widget
  +--> og_anim_create?/oled_anim
  +--> og_canvas_drawDot?/oled_canvas
  +--> Bee?/Buzzer
  +--> rand??/RAND?

Exit?/page_snake                            ----- -----
  +--> LSM6DSMConfigAcc?/LSM6DSM
  +--> LSM6DSMConfigGyr?/LSM6DSM
  +--> delet?/page_snake
  +--> og_group_addAnimOffset?/oled_group

delet?/page_snake                           ----- -----
  +--> og_group_delet?/oled_group
  +--> pageSetStatus?/pageManager

Event?/page_snake                           ----- -----
  +--> pageShift?/pageManager

pageRegister_page_magcal?/page_magcal       ----- -----
  +--> Setup?/page_magcal
  +--> Loop?/page_magcal
  +--> Exit?/page_magcal
  +--> Event?/page_magcal
  +--> pageRegister?/pageManager

Setup?/page_magcal                          ----- -----
  +--> og_label_create?/oled_label
  +--> og_label_setText?/oled_label
  +--> og_canvas_create?/oled_canvas
  +--> QMC5883LClearCaliValue?/QMC5883L
  +--> QMC5883LSetMode?/QMC5883L
  +--> ResetMatrix?/Ellipsoid fitting
  +--> LSM6DSMConfigAcc?/LSM6DSM
  +--> LSM6DSMConfigGyr?/LSM6DSM

QMC5883LClearCaliValue?/QMC5883L            ----- -----

ResetMatrix?/Ellipsoid fitting              ----- -----
L251 LINKER/LOCATER V4.66.93.0                                                        08/24/2022  19:19:43  PAGE 28



Loop?/page_magcal                           ----- -----
  +--> pageExecuteRate?/pageManager
  +--> og_widget_setShow?/oled_widget
  +--> og_canvas_drawDot?/oled_canvas
  +--> QMC5883LRead?/QMC5883L
  +--> CalcData_Input?/Ellipsoid fitting
  +--> pageShift?/pageManager

CalcData_Input?/Ellipsoid fitting           07A7H 07C6H

Exit?/page_magcal                           ----- -----
  +--> Ellipsoid_fitting_Process?/Ellipsoid fitting
  +--> QMC5883LSetCaliValue?/QMC5883L
  +--> QMC5883LSetMode?/QMC5883L
  +--> iWatchSaveConfig?/iWatch
  +--> LSM6DSMConfigAcc?/LSM6DSM
  +--> LSM6DSMConfigGyr?/LSM6DSM
  +--> og_widget_delet?/oled_widget
  +--> pageSetStatus?/pageManager

Ellipsoid_fitting_Process?/Ellipsoid fit+   07A7H 07C2H
... ting
  +--> CalcData_Input_average?/Ellipsoid fitting
  +--> Matrix_GaussElimination?/Ellipsoid fitting
  +--> PRINTF?/PRINTF?
  +--> Matrix_RowSimplify?/Ellipsoid fitting
  +--> Matrix_Solve?/Ellipsoid fitting

CalcData_Input_average?/Ellipsoid fittin+   ----- -----
... g

Matrix_GaussElimination?/Ellipsoid fitti+   07C3H 07C6H
... ng
  +--> MoveBiggestElement_to_Top?/Ellipsoid fitting
  +--> Row2_add_kRow1?/Ellipsoid fitting

MoveBiggestElement_to_Top?/Ellipsoid fit+   07C7H 07CAH
... ting
  +--> Abs?/Ellipsoid fitting
  +--> Row2_swop_Row1?/Ellipsoid fitting

Abs?/Ellipsoid fitting                      ----- -----

Row2_swop_Row1?/Ellipsoid fitting           ----- -----

Row2_add_kRow1?/Ellipsoid fitting           ----- -----

PRINTF?/PRINTF?                             07C3H 07EAH
  +--> OUT/PRINTF?

OUT/PRINTF?                                 ----- -----
  +--> PUTCH/PRINTF?

PUTCH/PRINTF?                               ----- -----
  +--> PUTCHAR?/PUTCHAR?
  +--> OUT/PRINTF?

PUTCHAR?/PUTCHAR?                           ----- -----

Matrix_RowSimplify?/Ellipsoid fitting       07C3H 07C6H
  +--> k_muiltply_Row?/Ellipsoid fitting

k_muiltply_Row?/Ellipsoid fitting           ----- -----

L251 LINKER/LOCATER V4.66.93.0                                                        08/24/2022  19:19:43  PAGE 29


Matrix_Solve?/Ellipsoid fitting             ----- -----

Event?/page_magcal                          ----- -----
  +--> pageShift?/pageManager

pageOpenCurrentPage?/pageManager            ----- -----

FeedWatchDog?/System                        ----- -----

og_run?/oled_gui                            ----- -----
  +--> og_tickElaps?/oled_gui
  +--> og_getTimestamp?/oled_gui
  +--> og_anim_run?/oled_anim
  +--> og_widget_draw?/oled_widget

og_tickElaps?/oled_gui                      ----- -----

og_getTimestamp?/oled_gui                   ----- -----

og_anim_run?/oled_anim                      07A7H 07B0H
  +--> og_tickElaps?/oled_gui
  +--> og_getTimestamp?/oled_gui
  +--> animate_fx?/oled_anim
  +--> anim_delet?/oled_anim

animate_fx?/oled_anim                       ----- -----

anim_delet?/oled_anim                       ----- -----
  +--> free?/FREE?

og_widget_draw?/oled_widget                 ----- -----
  +--> og_clearDisplayBuf?/oled_draw
  +--> og_bmp_draw?/oled_bmp
  +--> og_switch_draw?/oled_switch
  +--> og_label_draw?/oled_label
  +--> og_slider_draw?/oled_slider
  +--> og_canvas_draw?/oled_canvas
  +--> og_screenRefresh?/oled_draw

og_clearDisplayBuf?/oled_draw               ----- -----

og_bmp_draw?/oled_bmp                       ----- -----
  +--> BMPtoBuf?/oled_draw

BMPtoBuf?/oled_draw                         07BFH 07C3H

og_switch_draw?/oled_switch                 ----- -----
  +--> BMPtoBuf?/oled_draw

og_label_draw?/oled_label                   07A7H 07BEH
  +--> calloc?/CALLOC?
  +--> GT20L16S1YGetCharASCII_5X7?/GT20L16S1Y
  +--> BMPtoBuf?/oled_draw
  +--> GT20L16S1YGetCharASCII_7X8?/GT20L16S1Y
  +--> GT20L16S1YGetCharASCII_8X16?/GT20L16S1Y
  +--> GT20L16S1YGetCharASCII_8X16_BOLD?/GT20L16S1Y
  +--> GT20L16S1YGetCharGB2312_15X16?/GT20L16S1Y
  +--> free?/FREE?

GT20L16S1YGetCharASCII_7X8?/GT20L16S1Y      07BFH 07C2H
  +--> SPI_WriteByte?/SPI
  +--> SPI_WriteMultiBytes?/SPI
  +--> SPI_ReadMultiBytes?/SPI

GT20L16S1YGetCharASCII_8X16?/GT20L16S1Y     07BFH 07C4H
L251 LINKER/LOCATER V4.66.93.0                                                        08/24/2022  19:19:43  PAGE 30


  +--> SPI_WriteByte?/SPI
  +--> SPI_WriteMultiBytes?/SPI
  +--> SPI_ReadMultiBytes?/SPI

GT20L16S1YGetCharASCII_8X16_BOLD?/GT20L1+   07BFH 07C4H
... 6S1Y
  +--> SPI_WriteByte?/SPI
  +--> SPI_WriteMultiBytes?/SPI
  +--> SPI_ReadMultiBytes?/SPI

GT20L16S1YGetCharGB2312_15X16?/GT20L16S1+   07BFH 07C4H
... Y
  +--> SPI_WriteByte?/SPI
  +--> SPI_WriteMultiBytes?/SPI
  +--> SPI_ReadMultiBytes?/SPI

og_slider_draw?/oled_slider                 07A7H 07B9H
  +--> calloc?/CALLOC?
  +--> int16ToStr?/oled_slider
  +--> GT20L16S1YGetCharASCII_5X7?/GT20L16S1Y
  +--> BMPtoBuf?/oled_draw
  +--> free?/FREE?

int16ToStr?/oled_slider                     ----- -----

og_canvas_draw?/oled_canvas                 ----- -----
  +--> BMPtoBuf?/oled_draw

og_screenRefresh?/oled_draw                 ----- -----
  +--> OLED_Refresh?/oled

OLED_Refresh?/oled                          ----- -----
  +--> SPI_WriteMultiBytes?/SPI

pageRun?/pageManager                        ----- -----

iWatchStatusHandle?/iWatch                  ----- -----
  +--> Bee?/Buzzer
  +--> BuzzerOff?/Buzzer
  +--> pageEventTransmit?/pageManager
  +--> RX8130CEReadIntSrc?/RX8130CE
  +--> RX8130CEClearAlarmFlag?/RX8130CE
  +--> Beebeebee?/Buzzer
  +--> Delay1ms?/Delay
  +--> RX8130CEAlarmHandle?/RX8130CE
  +--> RX8130CEClearTimerFlag?/RX8130CE
  +--> RX8130CEReadTime?/RX8130CE
  +--> memcpy??/MEMCPY?
  +--> LSM6DSMGetCurrentStep?/LSM6DSM
  +--> LSM6DSMResetStepCounter?/LSM6DSM
  +--> iWatchSaveConfig?/iWatch
  +--> OLED_Display_On?/oled
  +--> pageOpenCurrentPage?/pageManager
  +--> MCUSoftReset?/System
  +--> OLED_Display_Off?/oled
  +--> pageCloseCurrentPage?/pageManager
  +--> pageGetStatus?/pageManager
  +--> SystemSleep?/System
  +--> Delay1us?/Delay
  +--> SystemWake?/System
  +--> SystemPowerDown?/System

pageEventTransmit?/pageManager              ----- -----

RX8130CEReadIntSrc?/RX8130CE                ----- -----
L251 LINKER/LOCATER V4.66.93.0                                                        08/24/2022  19:19:43  PAGE 31


  +--> Single_ReadIIC?/IIC

Beebeebee?/Buzzer                           ----- -----
  +--> PWMOn?/Buzzer

RX8130CEAlarmHandle?/RX8130CE               ----- -----
  +--> RX8130CEDisableAlarm?/RX8130CE

RX8130CEDisableAlarm?/RX8130CE              ----- -----
  +--> Single_WriteIIC?/IIC
  +--> RX8130RegSetBit?/RX8130CE

LSM6DSMResetStepCounter?/LSM6DSM            ----- -----
  +--> LSM6DSMRSetRegisterBits?/LSM6DSM
  +--> Delay1ms?/Delay

OLED_Display_On?/oled                       ----- -----
  +--> OLED_WR_CMD?/oled

OLED_Display_Off?/oled                      ----- -----
  +--> OLED_WR_CMD?/oled

pageCloseCurrentPage?/pageManager           ----- -----

pageGetStatus?/pageManager                  ----- -----

SystemSleep?/System                         ----- -----
  +--> BuzzerOff?/Buzzer
  +--> ADC_Deinit?/System

ADC_Deinit?/System                          ----- -----

Delay1us?/Delay                             ----- -----

SystemWake?/System                          ----- -----
  +--> ADC_Init?/System

SystemPowerDown?/System                     ----- -----
  +--> BuzzerOff?/Buzzer
  +--> IIC_Deinit?/IIC
  +--> SPI_Deinit?/SPI

IIC_Deinit?/IIC                             ----- -----

SPI_Deinit?/SPI                             ----- -----

*** NEW ROOT ******************************

?C_C51STARTUP?2                             ----- -----



PUBLIC SYMBOLS OF MODULE:  .\Objects\iWatch-v2.0 (oled_anim)


      VALUE       CLASS    TYPE      PUBLIC SYMBOL NAME
      =================================================
      000007B6H   EDATA    BYTE      ?BMPtoBuf??BYTE
      00FE0670H   ECODE    FAR LAB   ?C?CASTF?
      000000FFH   NUMBER   ---       ?C?CODESEG
      00FE063DH   ECODE    FAR LAB   ?C?FCASTC?
      00FE0638H   ECODE    FAR LAB   ?C?FCASTI?
      00FE0633H   ECODE    FAR LAB   ?C?FCASTL?
      00FE0E7CH   ECODE    ---       ?C?FP2SERIES?
      00FE0406H   ECODE    ---       ?C?FPADD?
L251 LINKER/LOCATER V4.66.93.0                                                        08/24/2022  19:19:43  PAGE 32


      00FE05DFH   ECODE    ---       ?C?FPCMP3?
      00FE05E1H   ECODE    ---       ?C?FPCMP?
      00FE0EBAH   ECODE    ---       ?C?FPCONVERT?
      00FE055EH   ECODE    ---       ?C?FPDIV?
      00FE09EFH   ECODE    ---       ?C?FPGETOPN2?
      00FE04BEH   ECODE    ---       ?C?FPMUL?
      00FE0A2CH   ECODE    ---       ?C?FPNANRESULT?
      00FE0625H   ECODE    ---       ?C?FPNEG?
      00FE0A34H   ECODE    ---       ?C?FPOVERFLOW?
      00FE0A1EH   ECODE    ---       ?C?FPRESULT2?
      00FE0A08H   ECODE    ---       ?C?FPRESULT?
      00FE0F74H   ECODE    ---       ?C?FPROUND?
      00FE0E86H   ECODE    ---       ?C?FPSERIES?
      00FE0403H   ECODE    ---       ?C?FPSUB?
      00FE0A31H   ECODE    ---       ?C?FPUNDERFLOW?
      00FE0FE7H   ECODE    ---       ?C?FTNPWR?
      00FF1886H   CODE     ---       ?C?INITEDATA
      00FEB5EFH   HCONST   WORD      ?C?INITEDATA_END
      00FF18AFH   CODE     ---       ?C?INITHDATA
      00FEB45EH   HCONST   WORD      ?C?INITHDATA_END
      00FE10B7H   ECODE    ---       ?C?LMUL?
      00FE0A6DH   ECODE    ---       ?C?PRNFMT?
      00FE101FH   ECODE    ---       ?C?SIDIV?
      00FF0000H   CODE     ---       ?C?STARTUP?
      00FE1053H   ECODE    FAR LAB   ?C?ULDIV?
      00FE1051H   ECODE    FAR LAB   ?C?ULIDIV?
      00000001H   NUMBER   ---       ?C?XDATASEG
      00FF0000H   CODE     ---       ?C_STARTUP?
      0000079FH   EDATA    BYTE      ?CalcData_Input??BYTE
      000007A3H   EDATA    BYTE      ?og_anim_create??BYTE
      000007B4H   EDATA    BYTE      ?og_anim_create_offset??BYTE
      000007AAH   EDATA    BYTE      ?og_canvas_drawText??BYTE
      000007A5H   EDATA    BYTE      ?og_group_addAnimOffset??BYTE
      000007A4H   EDATA    BYTE      ?og_slider_create??BYTE
      0000079EH   EDATA    BYTE      ?pageRegister??BYTE
      000007EBH   EDATA    ---       ?printf??BYTE
      000007A7H   EDATA    BYTE      ?QMC5883LCalYaw??BYTE
      000007DBH   EDATA    ---       ?sprintf??BYTE
      00000BB1H   HDATA    ---       __mp__
      00FE5800H   ECODE    ---       Abs?
*SFR* 000000BCH   DATA     BYTE      ADC_CONTR
      00FEA252H   ECODE    ---       ADC_Deinit?
      00FEA238H   ECODE    ---       ADC_Init?
*SFR* 000000BDH   DATA     BYTE      ADC_RES
*SFR* 000000BEH   DATA     BYTE      ADC_RESL
*SFR* 000000DEH   DATA     BYTE      ADCCFG
      00FE7FFDH   ECODE    ---       anim_delet?
      00FE47BBH   ECODE    ---       anim_fall?
      00FE47D9H   ECODE    ---       anim_jump?
      00FE7E13H   ECODE    ---       animate_fx?
      00FE09CAH   ECODE    ---       asin??
      00FEAFB6H   ECODE    ---       atan2??
      00FE08EFH   ECODE    ---       atan??
      00FEAE1AH   ECODE    ---       atoi??
*SFR* 000000EFH   DATA     BYTE      AUXINTIF
*SFR* 0000008EH   DATA     BYTE      AUXR
      0001146BH   XDATA    ---       battery
      00FF1851H   CODE     ---       BATTERY_CHARGING
      00011485H   XDATA    FLOAT     battery_life
      00FF17F1H   CODE     ---       BATTERY_LIFE_ICON
      00FEA599H   ECODE    ---       Bee?
      00000AABH   EDATA    BYTE      bee_mode
      00000AACH   EDATA    WORD      bee_time
      00FEA5ACH   ECODE    ---       Beebeebee?
      00011507H   XDATA    ---       BMP390
L251 LINKER/LOCATER V4.66.93.0                                                        08/24/2022  19:19:43  PAGE 33


      00FE52E2H   ECODE    ---       BMP390CheckConnection?
      00FE574CH   ECODE    ---       BMP390GetSensorData?
      00FE579BH   ECODE    ---       BMP390Init?
      00FE52D8H   ECODE    ---       BMP390ReadByte?
      00FE52EFH   ECODE    ---       BMP390ReadCompensationParameter?
      00FE5502H   ECODE    ---       BMP390ReadSensorRawData?
      00FE577FH   ECODE    ---       BMP390SetMode?
      00FE576EH   ECODE    ---       BMP390SoftReset?
      00FE52CEH   ECODE    ---       BMP390WriteByte?
      00FE8AC5H   ECODE    ---       BMPtoBuf?
      00FEABCCH   ECODE    ---       BtCheckConnection?
      00FEABC3H   ECODE    ---       BtOff?
      00FEAB9EH   ECODE    ---       BtOn?
      00FEABD1H   ECODE    ---       BtReceiveString?
      00FEAC11H   ECODE    ---       BtSendString?
      00FEA4C2H   ECODE    ---       BuzzerInit?
      00FEA58FH   ECODE    ---       BuzzerOff?
      00FE5841H   ECODE    ---       CalcData_Input?
      00FE58E1H   ECODE    ---       CalcData_Input_average?
      00FEB08FH   ECODE    ---       calloc?
      00FF0E79H   CODE     ---       CH
      00FF135DH   CODE     ---       CH1
      00FF0493H   CODE     ---       CLOCK_BELL_ICON
      00FF049DH   CODE     ---       COLON
      00FF0E5DH   CODE     ---       CommandList
      00FE2685H   ECODE    ---       CommandProc?
      00FE55B9H   ECODE    ---       compensate_pressure?
      00FE5563H   ECODE    ---       compensate_temperature?
      000114BFH   XDATA    ---       config
      00000AAEH   EDATA    BYTE      Cont
      00FE07D4H   ECODE    ---       cos??
      00FE2593H   ECODE    ---       DecVaList?
      00FEAFFFH   ECODE    ---       Delay1ms?
      00FEB020H   ECODE    ---       Delay1us?
      00FF00D3H   CODE     ---       DIGIT
      00FEAC28H   ECODE    ---       DisableEEPROM?
      00000029H   EDATA    ---       display_buf
      00FE1B49H   ECODE    ---       DisplayInit?
      00FE655BH   ECODE    ---       DisplayTimeInAnim?
      00FE1A72H   ECODE    ---       DrawBatteryIcon?
*SFR* 000000A8H.7 DATA     BIT       EA
      00FEAC3BH   ECODE    ---       EEPROM_read_n?
      00FEAC7DH   ECODE    ---       EEPROM_SectorErase?
      00FEACAAH   ECODE    ---       EEPROM_write_n?
      00FE5B83H   ECODE    ---       Ellipsoid_fitting_Process?
      00FF0FAFH   CODE     ---       EN
      00FEA230H   ECODE    ---       EnableWatchDog?
*SFR* 000000A8H.4 DATA     BIT       ES
*SFR* 000000A8H.1 DATA     BIT       ET0
*SFR* 000000A8H.3 DATA     BIT       ET1
*SFR* 000000A8H.0 DATA     BIT       EX0
*SFR* 000000A8H.2 DATA     BIT       EX1
      00000021H   IDATA    FLOAT     exInt
      00000A3CH   EDATA    FLOAT     eyInt
      00000A40H   EDATA    FLOAT     ezInt
*SFR* 000000D0H.5 DATA     BIT       F0
      00FEA234H   ECODE    ---       FeedWatchDog?
      0000060BH   EDATA    ---       final_solve
      00FEB92FH   HCONST   ---       font_addr
      00FEAA5FH   ECODE    ---       free?
      00FEA256H   ECODE    ---       Get_ADC12bitResult?
      00FEA281H   ECODE    ---       GetBatVoltage?
      00FEA16DH   ECODE    ---       GPIOInit?
      00FE9B8CH   ECODE    ---       GT20L16S1YGetCharASCII_5X7?
      00FE9BDCH   ECODE    ---       GT20L16S1YGetCharASCII_7X8?
L251 LINKER/LOCATER V4.66.93.0                                                        08/24/2022  19:19:43  PAGE 34


      00FE9C2EH   ECODE    ---       GT20L16S1YGetCharASCII_8X16?
      00FE9C91H   ECODE    ---       GT20L16S1YGetCharASCII_8X16_BOLD?
      00FE9CF4H   ECODE    ---       GT20L16S1YGetCharGB2312_15X16?
      00FEA921H   ECODE    ---       HDC2080CheckConnection?
      00FEA965H   ECODE    ---       HDC2080GetTH?
      00FEA9F0H   ECODE    ---       HDC2080Init?
      00FEA917H   ECODE    ---       HDC2080ReadByte?
      00FEA941H   ECODE    ---       HDC2080SetMode?
      00FEA954H   ECODE    ---       HDC2080StartConversion?
      00FEA90DH   ECODE    ---       HDC2080WriteByte?
      00FF0007H   CODE     BYTE      HRES
      000114A3H   XDATA    ---       HTU21D
      00FEA885H   ECODE    ---       HTU21DGetHumidity?
      00FEA824H   ECODE    ---       HTU21DGetTemperature?
      00FEA7DCH   ECODE    ---       HTU21DReadData?
      00FEA8E3H   ECODE    ---       HTU21DReset?
      00FEA7B3H   ECODE    ---       HTU21DSendCommand?
      00FEA81EH   ECODE    ---       HTU21DStart?
      00FE93FCH   ECODE    ---       I2C_Read_MultiBytes?
      00FE9336H   ECODE    ---       I2C_RecvACK?
      00FE9319H   ECODE    ---       I2C_RecvByte?
      00FE9347H   ECODE    ---       I2C_SendACK?
      00FE9301H   ECODE    ---       I2C_SendByte?
      00FE9360H   ECODE    ---       I2C_SendNAK?
      00FE92DFH   ECODE    ---       I2C_Start?
      00FE92F0H   ECODE    ---       I2C_Stop?
      00FE948FH   ECODE    ---       I2C_Write_MultiBytes?
*SFR* 000000F6H   DATA     BYTE      IAP_ADDRE
*SFR* 000000C3H   DATA     BYTE      IAP_ADDRH
*SFR* 000000C4H   DATA     BYTE      IAP_ADDRL
*SFR* 000000C5H   DATA     BYTE      IAP_CMD
*SFR* 000000C7H   DATA     BYTE      IAP_CONTR
*SFR* 000000C2H   DATA     BYTE      IAP_DATA
*SFR* 000000F5H   DATA     BYTE      IAP_TPS
*SFR* 000000C6H   DATA     BYTE      IAP_TRIG
*SFR* 000000A8H   DATA     BYTE      IE
*SFR* 000000AFH   DATA     BYTE      IE2
      00FE9293H   ECODE    ---       IIC_Deinit?
      00FE9277H   ECODE    ---       IIC_Init?
      00FE30B0H   ECODE    ---       IMUupdate?
      00FEB068H   ECODE    ---       init_mempool?
      00FE11B5H   ECODE    ---       INT0_Isr?
      00FE81A0H   ECODE    ---       int16ToStr?
      00FE11DCH   ECODE    ---       INT1_Isr?
      00FE11F3H   ECODE    ---       INT2_Isr?
      00FE120AH   ECODE    ---       INT3_Isr?
*SFR* 0000008FH   DATA     BYTE      INTCLKO
      00FEA212H   ECODE    ---       IntInit?
*SFR* 000000B8H   DATA     BYTE      IP
      00FEB138H   ECODE    ---       isdigit??
      00FEB124H   ECODE    ---       isspace??
*SFR* 00000088H.0 DATA     BIT       IT0
*SFR* 00000088H.2 DATA     BIT       IT1
      00FF10E5H   CODE     ---       item
      000114BAH   XDATA    WORD      iWatch_action
      000114BCH   XDATA    WORD      iWatch_status
      00FE16E6H   ECODE    ---       iWatchGetBatteryLife?
      00FE1B69H   ECODE    ---       iWatchInit?
      00FE1589H   ECODE    ---       iWatchKeepActive?
      00FE15DDH   ECODE    ---       iWatchPowerDown?
      00FE1653H   ECODE    ---       iWatchReadConfig?
      00FE161FH   ECODE    ---       iWatchSaveConfig?
      00FE159BH   ECODE    ---       iWatchSleep?
      00FE12B4H   ECODE    ---       iWatchStatusHandle?
      00FE1221H   ECODE    ---       iWatchStatusUpdate?
L251 LINKER/LOCATER V4.66.93.0                                                        08/24/2022  19:19:43  PAGE 35


      00FE5969H   ECODE    ---       k_muiltply_Row?
      00000AB0H   EDATA    BYTE      key_mask
      00FE10C8H   ECODE    ---       KeyScan?
      000007EBH   EDATA    ---       label_str
      00FE9733H   ECODE    ---       lableAppendTextWithRoll?
      00FE97B9H   ECODE    ---       lableRollDown?
      00FE9772H   ECODE    ---       lableRollUp?
      00011489H   XDATA    ---       LSM6DSM
      00FE2E22H   ECODE    ---       LSM6DSMCheckConnection?
      00FE2E30H   ECODE    ---       LSM6DSMConfigAcc?
      00FE2E3AH   ECODE    ---       LSM6DSMConfigGyr?
      00FE2F6FH   ECODE    ---       LSM6DSMDisableAWT?
      00FE2EB2H   ECODE    ---       LSM6DSMDisableEMbeddedFunc?
      00FE3044H   ECODE    ---       LSM6DSMDisablePedometer?
      00FE2EBDH   ECODE    ---       LSM6DSMEnableAWT?
      00FE2EA6H   ECODE    ---       LSM6DSMEnableEMbeddedFunc?
      00FE2F9EH   ECODE    ---       LSM6DSMEnablePedometer?
      00FE300AH   ECODE    ---       LSM6DSMGetCurrentStep?
      00FE3068H   ECODE    ---       LSM6DSMInit?
      00FE2DEAH   ECODE    ---       LSM6DSMReadByte?
      00FE2E44H   ECODE    ---       LSM6DSMReadGYRAndACC?
      00FE3025H   ECODE    ---       LSM6DSMResetStepCounter?
      00FE2DF4H   ECODE    ---       LSM6DSMRSetRegisterBits?
      00FE2E92H   ECODE    ---       LSM6DSMSoftReset?
      00FE2DE0H   ECODE    ---       LSM6DSMWriteByte?
      00000625H   EDATA    ---       m_matrix
      000006CDH   EDATA    ---       m_result
      000114B4H   XDATA    ---       mag
      00000A55H   EDATA    INT       mag_x_offset
      00000A5BH   EDATA    INT       mag_y_offset
      00000A57H   EDATA    FLOAT     mag_y_scale
      00000A61H   EDATA    INT       mag_z_offset
      00000A5DH   EDATA    FLOAT     mag_z_scale
      00FEB10EH   ECODE    ---       main?
      00FEAF0BH   ECODE    ---       malloc?
      00FE5A61H   ECODE    ---       Matrix_GaussElimination?
      00FE5ACDH   ECODE    ---       Matrix_RowSimplify?
      00FE5AFBH   ECODE    ---       Matrix_Solve?
      00FEA221H   ECODE    ---       MCUSoftReset?
      00FF0009H   CODE     BYTE      MEAS_CFG
      00FEB0B5H   ECODE    ---       memcpy??
      00FEB0F4H   ECODE    ---       memset??
      00000A51H   EDATA    BYTE      MOD
      00FE59F2H   ECODE    ---       MoveBiggestElement_to_Top?
      00FE257FH   ECODE    ---       MuxSendString?
      00000623H   EDATA    INT       N
      00000A52H   EDATA    BYTE      ODR
      00FE7E37H   ECODE    ---       og_anim_create?
      00FE7F09H   ECODE    ---       og_anim_create_offset?
      00FE7E03H   ECODE    ---       og_anim_init?
      00FE809CH   ECODE    ---       og_anim_run?
      00FEACECH   ECODE    ---       og_bmp_create?
      00FEAD6FH   ECODE    ---       og_bmp_draw?
      00FEAD4DH   ECODE    ---       og_bmp_setBmp?
      00FE4E2CH   ECODE    ---       og_canvas_clear?
      00FE4D9BH   ECODE    ---       og_canvas_create?
      00FE52A7H   ECODE    ---       og_canvas_draw?
      00FE4E5EH   ECODE    ---       og_canvas_drawDot?
      00FE4EB4H   ECODE    ---       og_canvas_drawLine?
      00FE518DH   ECODE    ---       og_canvas_drawRectangle?
      00FE5252H   ECODE    ---       og_canvas_drawText?
      00FE8AADH   ECODE    ---       og_clearDisplayBuf?
      00FEADA1H   ECODE    ---       og_getTimestamp?
      00FE7791H   ECODE    ---       og_group_addAnimOffset?
      00FE76E4H   ECODE    ---       og_group_addWidget?
L251 LINKER/LOCATER V4.66.93.0                                                        08/24/2022  19:19:43  PAGE 36


      00FE76C7H   ECODE    ---       og_group_create?
      00FE7800H   ECODE    ---       og_group_delet?
      00FE7844H   ECODE    ---       og_group_focusWidget?
      00FE79BEH   ECODE    ---       og_group_getFocusIndex?
      00FE79A2H   ECODE    ---       og_group_getFocusWidget?
      00FE79C5H   ECODE    ---       og_group_hideOffScreenWidget?
      00FE7743H   ECODE    ---       og_group_setPosOffset?
      00FEADCBH   ECODE    ---       og_init?
      00FE1D92H   ECODE    ---       og_label_appendText?
      00FE1EDAH   ECODE    ---       og_label_clear?
      00FE1BE5H   ECODE    ---       og_label_create?
      00FE1F06H   ECODE    ---       og_label_draw?
      00FE1C4DH   ECODE    ---       og_label_setText?
      00FEADFBH   ECODE    ---       og_run?
      00FE8ABDH   ECODE    ---       og_screenRefresh?
      00FE82A4H   ECODE    ---       og_slider_create?
      00FE8385H   ECODE    ---       og_slider_draw?
      00FE8376H   ECODE    ---       og_slider_getValue?
      00FE833BH   ECODE    ---       og_slider_setValue?
      00FEA63FH   ECODE    ---       og_switch_create?
      00FEA78CH   ECODE    ---       og_switch_draw?
      00FEA780H   ECODE    ---       og_switch_getStatus?
      00FEA731H   ECODE    ---       og_switch_setStatus?
      00FEADA6H   ECODE    ---       og_tickElaps?
      00FEAD96H   ECODE    ---       og_timeTick?
      00FE8500H   ECODE    ---       og_widget_add?
      00FE84E7H   ECODE    ---       og_widget_create?
      00FE8550H   ECODE    ---       og_widget_delet?
      00FE8750H   ECODE    ---       og_widget_draw?
      00FE84D7H   ECODE    ---       og_widget_init?
      00FE865BH   ECODE    ---       og_widget_setAlignment?
      00FE863AH   ECODE    ---       og_widget_setPos?
      00FE8644H   ECODE    ---       og_widget_setPosOffset?
      00FE8618H   ECODE    ---       og_widget_setShow?
      00FEA3BBH   ECODE    ---       OLED_Clear?
      00FEA354H   ECODE    ---       OLED_Display_Off?
      00FEA33DH   ECODE    ---       OLED_Display_On?
      00FEA3E2H   ECODE    ---       OLED_Init?
      00FEA3A6H   ECODE    ---       OLED_Inverse?
      00FEA3D3H   ECODE    ---       OLED_Refresh?
      00FEA36BH   ECODE    ---       OLED_Set_Brightness?
      00FEA382H   ECODE    ---       OLED_setBreathing?
      00FEA331H   ECODE    ---       OLED_WR_CMD?
      00FEA337H   ECODE    ---       OLED_WR_DAT?
      00000A54H   EDATA    BYTE      OSR
*SFR* 00000080H   DATA     BYTE      P0
*SFR* 00000080H.0 DATA     BIT       P00
*SFR* 00000080H.6 DATA     BIT       P06
*SFR* 00000080H.7 DATA     BIT       P07
*SFR* 00000094H   DATA     BYTE      P0M0
*SFR* 00000093H   DATA     BYTE      P0M1
*SFR* 00000090H   DATA     BYTE      P1
*SFR* 00000090H.0 DATA     BIT       P10
*SFR* 00000090H.1 DATA     BIT       P11
*SFR* 00000090H.3 DATA     BIT       P13
*SFR* 00000090H.4 DATA     BIT       P14
*SFR* 00000090H.5 DATA     BIT       P15
*SFR* 00000090H.7 DATA     BIT       P17
*SFR* 00000092H   DATA     BYTE      P1M0
*SFR* 00000091H   DATA     BYTE      P1M1
*SFR* 000000A0H   DATA     BYTE      P2
*SFR* 000000A0H.0 DATA     BIT       P20
*SFR* 00000096H   DATA     BYTE      P2M0
*SFR* 00000095H   DATA     BYTE      P2M1
*SFR* 000000B0H   DATA     BYTE      P3
L251 LINKER/LOCATER V4.66.93.0                                                        08/24/2022  19:19:43  PAGE 37


*SFR* 000000B0H.2 DATA     BIT       P32
*SFR* 000000B0H.7 DATA     BIT       P37
*SFR* 000000B2H   DATA     BYTE      P3M0
*SFR* 000000B1H   DATA     BYTE      P3M1
*SFR* 000000C0H   DATA     BYTE      P4
*SFR* 000000C0H.3 DATA     BIT       P43
*SFR* 000000C0H.4 DATA     BIT       P44
*SFR* 000000C0H.5 DATA     BIT       P45
*SFR* 000000C0H.7 DATA     BIT       P47
*SFR* 000000B4H   DATA     BYTE      P4M0
*SFR* 000000B3H   DATA     BYTE      P4M1
*SFR* 000000C8H   DATA     BYTE      P5
*SFR* 000000CAH   DATA     BYTE      P5M0
*SFR* 000000C9H   DATA     BYTE      P5M1
*SFR* 000000E8H   DATA     BYTE      P6
*SFR* 000000F8H   DATA     BYTE      P7
*SFR* 000000A2H   DATA     BYTE      P_SW1
*SFR* 000000BAH   DATA     BYTE      P_SW2
      00FE9EDEH   ECODE    ---       pageCloseCurrentPage?
      00FE9E86H   ECODE    ---       pageEventTransmit?
      00FE9E19H   ECODE    ---       pageExecuteRate?
      00FE9F8CH   ECODE    ---       pageGetStatus?
      00FE9DA5H   ECODE    ---       pageInit?
      00000441H   EDATA    ---       pagelist
      00FE9EB2H   ECODE    ---       pageOpenCurrentPage?
      00FE9E37H   ECODE    ---       pageRegister?
      00FE42A5H   ECODE    ---       pageRegister_page_alarm?
      00FE992CH   ECODE    ---       pageRegister_page_bluetooth_serial?
      00FE6ECAH   ECODE    ---       pageRegister_page_compass?
      00FE9233H   ECODE    ---       pageRegister_page_devinfo?
      00FEA129H   ECODE    ---       pageRegister_page_flashlight?
      00FE9B48H   ECODE    ---       pageRegister_page_hdc2080?
      00FE2D9CH   ECODE    ---       pageRegister_page_ilink?
      00FE96EFH   ECODE    ---       pageRegister_page_lsm6dsl?
      00FE8FC2H   ECODE    ---       pageRegister_page_magcal?
      00FE7DCBH   ECODE    ---       pageRegister_page_menu?
      00FE7683H   ECODE    ---       pageRegister_page_pedometer?
      00FE6A6FH   ECODE    ---       pageRegister_page_settime?
      00FE4D57H   ECODE    ---       pageRegister_page_setting?
      00FE3D25H   ECODE    ---       pageRegister_page_snake?
      00FE6144H   ECODE    ---       pageRegister_page_timer?
      00FE4815H   ECODE    ---       pageRegister_page_trexrunner?
      00FE6523H   ECODE    ---       pageRegister_page_watch?
      00FE9F6DH   ECODE    ---       pageRun?
      00FE9F81H   ECODE    ---       pageSetStatus?
      00FE9EFCH   ECODE    ---       pageShift?
      00FE9E0EH   ECODE    ---       pageTick?
*SFR* 00000087H   DATA     BYTE      PCON
      00FE06ADH   ECODE    FAR LAB   printf?
*SFR* 000000D0H   DATA     BYTE      PSW
      00FE10A4H   ECODE    FAR LAB   PUTCHAR?
      00000729H   EDATA    ---       pVaList
      00FEA549H   ECODE    ---       PWMOff?
      00FEA56CH   ECODE    ---       PWMOn?
      00000025H   IDATA    FLOAT     q0
      00000A44H   EDATA    FLOAT     q1
      00000A48H   EDATA    FLOAT     q2
      00000A4CH   EDATA    FLOAT     q3
      00FE87E8H   ECODE    ---       QMC5883L_Read_Byte?
      00FE87DEH   ECODE    ---       QMC5883L_Write_Byte?
      00FE8991H   ECODE    ---       QMC5883LCalYaw?
      00FE87F2H   ECODE    ---       QMC5883LCheckConnection?
      00FE88F0H   ECODE    ---       QMC5883LClearCaliValue?
      00FE892EH   ECODE    ---       QMC5883LInit?
      00FE8802H   ECODE    ---       QMC5883LRead?
L251 LINKER/LOCATER V4.66.93.0                                                        08/24/2022  19:19:43  PAGE 38


      00FE88AAH   ECODE    ---       QMC5883LSetCaliValue?
      00FE890BH   ECODE    ---       QMC5883LSetMode?
      00FEB037H   ECODE    ---       rand??
      0000042DH   EDATA    ---       Rate1000Hz
      00000603H   EDATA    ---       Rate100Hz
      00000431H   EDATA    ---       Rate10Hz
      00000607H   EDATA    ---       Rate125Hz
      00000435H   EDATA    ---       Rate20Hz
      00000439H   EDATA    ---       Rate50Hz
      00000429H   EDATA    ---       Rate5Hz
      00FEAF64H   ECODE    ---       realloc?
      000008D1H   EDATA    BYTE      record_cnt
      00FE5813H   ECODE    ---       ResetMatrix?
*SFR* 00000098H.0 DATA     BIT       RI
      00000A53H   EDATA    BYTE      RNG
      00FE59A1H   ECODE    ---       Row2_add_kRow1?
      00FE5927H   ECODE    ---       Row2_swop_Row1?
      000115DBH   XDATA    ---       rx4_buf
      0001161BH   XDATA    BYTE      rx4_cnt
      00FE71C3H   ECODE    ---       RX8130CEAlarmHandle?
      00FE71DAH   ECODE    ---       RX8130CEClearAlarmFlag?
      00FE7291H   ECODE    ---       RX8130CEClearTimerFlag?
      00FE71E5H   ECODE    ---       RX8130CEDisableAlarm?
      00FE729CH   ECODE    ---       RX8130CEDisableTimer?
      00FE72E5H   ECODE    ---       RX8130CEInit?
      00FE72D9H   ECODE    ---       RX8130CEReadIntSrc?
      00FE6F3DH   ECODE    ---       RX8130CEReadTime?
      00FE70FEH   ECODE    ---       RX8130CESetAlarm?
      00FE72B2H   ECODE    ---       RX8130CESetClockOuput?
      00FE721FH   ECODE    ---       RX8130CESetTimer?
      00FE702CH   ECODE    ---       RX8130CEWriteTime?
      00FE6F0EH   ECODE    ---       RX8130RegSetBit?
*SFR* 000000FEH   DATA     BYTE      S4BUF
*SFR* 000000FDH   DATA     BYTE      S4CON
*SFR* 00000099H   DATA     BYTE      SBUF
*SFR* 00000098H   DATA     BYTE      SCON
      000114ABH   XDATA    BYTE      sensor_status
      00FE1AECH   ECODE    ---       SensorInit?
      00FF0027H   CODE     ---       sFont
      00FE3FE9H   ECODE    ---       showText6?
      00FE07F1H   ECODE    ---       sin??
      00FE93B5H   ECODE    ---       Single_ReadIIC?
      00FE937AH   ECODE    ---       Single_WriteIIC?
*SFR* 000000CEH   DATA     BYTE      SPCTL
*SFR* 000000CFH   DATA     BYTE      SPDAT
      00FEAEAAH   ECODE    ---       SPI_Deinit?
      00FEAE9BH   ECODE    ---       SPI_Init?
      00FEAEBAH   ECODE    ---       SPI_ReadByte?
      00FEAEE8H   ECODE    ---       SPI_ReadMultiBytes?
      00FEAEAEH   ECODE    ---       SPI_WriteByte?
      00FEAEC8H   ECODE    ---       SPI_WriteMultiBytes?
      00FE06DAH   ECODE    FAR LAB   sprintf?
*SFR* 000000CDH   DATA     BYTE      SPSTAT
      00FE06FAH   ECODE    ---       sqrt??
      00FEB057H   ECODE    ---       srand??
      00FE1BC0H   ECODE    ---       str_cmp?
      00FE1BA6H   ECODE    ---       str_cpy?
      00FE1B8DH   ECODE    ---       str_len?
      00FEB0DEH   ECODE    FAR LAB   strcmp??
      00FEA2F8H   ECODE    ---       SystemInit?
      00FEA2B8H   ECODE    ---       SystemPowerDown?
      00FEA29CH   ECODE    ---       SystemSleep?
      00FEA2EAH   ECODE    ---       SystemWake?
*SFR* 000000D6H   DATA     BYTE      T2H
*SFR* 000000D7H   DATA     BYTE      T2L
L251 LINKER/LOCATER V4.66.93.0                                                        08/24/2022  19:19:43  PAGE 39


*SFR* 000000D4H   DATA     BYTE      T3H
*SFR* 000000D5H   DATA     BYTE      T3L
*SFR* 000000D2H   DATA     BYTE      T4H
*SFR* 000000D3H   DATA     BYTE      T4L
*SFR* 000000DDH   DATA     BYTE      T4T3M
      00FE081FH   ECODE    ---       TAN??
*SFR* 00000088H   DATA     BYTE      TCON
*SFR* 00000088H.7 DATA     BIT       TF1
*SFR* 0000008CH   DATA     BYTE      TH0
*SFR* 0000008DH   DATA     BYTE      TH1
*SFR* 00000098H.1 DATA     BIT       TI
      000114ADH   XDATA    ---       time
      00000010H   DATA     WORD      timeout
      00FEA204H   ECODE    ---       Timer0Init?
      00FEA1F1H   ECODE    ---       Timer1Init?
      000008E0H   EDATA    WORD      timer_cnt
      00FF009FH   CODE     ---       TIMER_ICON
*SFR* 0000008AH   DATA     BYTE      TL0
*SFR* 0000008BH   DATA     BYTE      TL1
      00FE5CD7H   ECODE    ---       TM0_Isr?
      00FE1138H   ECODE    ---       TM1_Isr?
      00FEA5C0H   ECODE    ---       TM3_Isr?
*SFR* 00000089H   DATA     BYTE      TMOD
      000008E7H   EDATA    ---       tp
*SFR* 00000088H.4 DATA     BIT       TR0
*SFR* 00000088H.6 DATA     BIT       TR1
      00FF0008H   CODE     BYTE      TRES
      00000AAFH   EDATA    BYTE      Trg
      00FE2520H   ECODE    ---       UART1_Isr?
      00FE24D2H   ECODE    ---       Uart1Reset?
      00FE2564H   ECODE    ---       Uart1SendString?
      000115DAH   XDATA    BYTE      uart4_busy_flag
      00FEA1DEH   ECODE    ---       Uart4Init?
      00FEAB46H   ECODE    ---       Uart4Isr?
      00FEAB8CH   ECODE    ---       Uart4SendChar?
      00FEA1C9H   ECODE    ---       UartInit?
      0001159AH   XDATA    DWORD     uncomp_pressure
      00011596H   XDATA    DWORD     uncomp_temperature
      00FE92ADH   ECODE    ---       Wait?
*SFR* 000000C1H   DATA     BYTE      WDT_CONTR
      00FF00A9H   CODE     ---       WEEKDAY_IN_STR
*SFR* 000000E9H   DATA     BYTE      WTST



SYMBOL TABLE OF MODULE:  .\Objects\iWatch-v2.0 (oled_anim)

      VALUE       REP       CLASS    TYPE      SYMBOL NAME
      ====================================================
      ---         MODULE    ---      ---       oled_anim
      00FE809CH   PUBLIC    ECODE    ---       og_anim_run?
      00FE7FFDH   PUBLIC    ECODE    ---       anim_delet?
      00FE7E13H   PUBLIC    ECODE    ---       animate_fx?
      00FE7F09H   PUBLIC    ECODE    ---       og_anim_create_offset?
      00FE7E37H   PUBLIC    ECODE    ---       og_anim_create?
      00FE7E03H   PUBLIC    ECODE    ---       og_anim_init?
      000007A3H   PUBLIC    EDATA    BYTE      ?og_anim_create??BYTE
      000007B4H   PUBLIC    EDATA    BYTE      ?og_anim_create_offset??BYTE
      00000A73H   SYMBOL    EDATA    ---       pLast
      00000A77H   SYMBOL    EDATA    BYTE      ucSum
      00000A78H   SYMBOL    EDATA    WORD      anim_timestamp
      00000A7AH   SYMBOL    EDATA    ---       pFirst

      00FE7E03H   BLOCK     ECODE    ---       LVL=0
      00FE7E03H   LINE      ECODE    ---       #10
L251 LINKER/LOCATER V4.66.93.0                                                        08/24/2022  19:19:43  PAGE 40


      00FE7E03H   LINE      ECODE    ---       #12
      00FE7E09H   LINE      ECODE    ---       #13
      00FE7E0DH   LINE      ECODE    ---       #14
      00FE7E12H   LINE      ECODE    ---       #15
      ---         BLOCKEND  ---      ---       LVL=0

      00FE7E13H   BLOCK     ECODE    ---       LVL=0
      DR4         REGSYM    ---      FLOAT     t
      00FE7E13H   LINE      ECODE    ---       #28
      00FE7E13H   LINE      ECODE    ---       #38
      ---         BLOCKEND  ---      ---       LVL=0

      00FE7E37H   BLOCK     ECODE    ---       LVL=0
      REG=3       REGSYM    ---      ---       pWidget
      000007A7H   SYMBOL    EDATA    INT       end_x
      000007A9H   SYMBOL    EDATA    INT       end_y
      000007ABH   SYMBOL    EDATA    WORD      duration
      000007ADH   SYMBOL    EDATA    ---       anim_end_cb
      00FE7E43H   BLOCK     ECODE    NEAR LAB  LVL=1
      REG=0       REGSYM    ---      ---       pAnim
      00FE7EC2H   SYMBOL    ECODE    NEAR LAB  anim_overwrite?240
      ---         BLOCKEND  ---      ---       LVL=1
      00FE7E37H   LINE      ECODE    ---       #51
      00FE7E43H   LINE      ECODE    ---       #52
      00FE7E43H   LINE      ECODE    ---       #53
      00FE7E47H   LINE      ECODE    ---       #61
      00FE7E49H   LINE      ECODE    ---       #63
      00FE7E54H   LINE      ECODE    ---       #64
      00FE7E54H   LINE      ECODE    ---       #65
      00FE7E5EH   LINE      ECODE    ---       #66
      00FE7E64H   LINE      ECODE    ---       #67
      00FE7E6EH   LINE      ECODE    ---       #75
      00FE7E74H   LINE      ECODE    ---       #77
      00FE7E7EH   LINE      ECODE    ---       #78
      00FE7E86H   LINE      ECODE    ---       #79
      00FE7E8AH   LINE      ECODE    ---       #80
      00FE7E8AH   LINE      ECODE    ---       #81
      00FE7E8CH   LINE      ECODE    ---       #84
      00FE7E98H   LINE      ECODE    ---       #85
      00FE7EA2H   LINE      ECODE    ---       #86
      00FE7EAEH   LINE      ECODE    ---       #87
      00FE7EB2H   LINE      ECODE    ---       #88
      00FE7EB2H   LINE      ECODE    ---       #89
      00FE7EBBH   LINE      ECODE    ---       #91
      00FE7EC2H   LINE      ECODE    ---       #92
      00FE7EC2H   LINE      ECODE    ---       #93
      00FE7EC9H   LINE      ECODE    ---       #94
      00FE7ED1H   LINE      ECODE    ---       #95
      00FE7EDEH   LINE      ECODE    ---       #96
      00FE7EECH   LINE      ECODE    ---       #97
      00FE7EF2H   LINE      ECODE    ---       #98
      00FE7EFAH   LINE      ECODE    ---       #99
      00FE7F06H   LINE      ECODE    ---       #100
      ---         BLOCKEND  ---      ---       LVL=0

      00FE7F09H   BLOCK     ECODE    ---       LVL=0
      REG=3       REGSYM    ---      ---       pWidget
      000007B8H   SYMBOL    EDATA    INT       delta_x
      000007BAH   SYMBOL    EDATA    INT       delta_y
      000007BCH   SYMBOL    EDATA    WORD      duration
      000007BEH   SYMBOL    EDATA    ---       anim_end_cb
      00FE7F15H   BLOCK     ECODE    NEAR LAB  LVL=1
      REG=0       REGSYM    ---      ---       pAnim
      00FE7FA2H   SYMBOL    ECODE    NEAR LAB  anim_overwrite?341
      00FE7FD1H   SYMBOL    ECODE    NEAR LAB  anim_end?342
L251 LINKER/LOCATER V4.66.93.0                                                        08/24/2022  19:19:43  PAGE 41


      ---         BLOCKEND  ---      ---       LVL=1
      00FE7F09H   LINE      ECODE    ---       #102
      00FE7F15H   LINE      ECODE    ---       #103
      00FE7F15H   LINE      ECODE    ---       #112
      00FE7F19H   LINE      ECODE    ---       #113
      00FE7F1BH   LINE      ECODE    ---       #115
      00FE7F26H   LINE      ECODE    ---       #116
      00FE7F26H   LINE      ECODE    ---       #117
      00FE7F30H   LINE      ECODE    ---       #118
      00FE7F36H   LINE      ECODE    ---       #119
      00FE7F40H   LINE      ECODE    ---       #127
      00FE7F46H   LINE      ECODE    ---       #129
      00FE7F50H   LINE      ECODE    ---       #130
      00FE7F58H   LINE      ECODE    ---       #131
      00FE7F5CH   LINE      ECODE    ---       #132
      00FE7F5CH   LINE      ECODE    ---       #133
      00FE7F5EH   LINE      ECODE    ---       #136
      00FE7F6AH   LINE      ECODE    ---       #137
      00FE7F74H   LINE      ECODE    ---       #138
      00FE7F80H   LINE      ECODE    ---       #139
      00FE7F84H   LINE      ECODE    ---       #140
      00FE7F84H   LINE      ECODE    ---       #141
      00FE7F8DH   LINE      ECODE    ---       #143
      00FE7F94H   LINE      ECODE    ---       #144
      00FE7F9CH   LINE      ECODE    ---       #145
      00FE7FA0H   LINE      ECODE    ---       #146
      00FE7FA2H   LINE      ECODE    ---       #147
      00FE7FA2H   LINE      ECODE    ---       #148
      00FE7FB9H   LINE      ECODE    ---       #149
      00FE7FD1H   LINE      ECODE    ---       #150
      00FE7FD1H   LINE      ECODE    ---       #151
      00FE7FD8H   LINE      ECODE    ---       #152
      00FE7FE0H   LINE      ECODE    ---       #153
      00FE7FE6H   LINE      ECODE    ---       #154
      00FE7FEEH   LINE      ECODE    ---       #155
      00FE7FFAH   LINE      ECODE    ---       #156
      ---         BLOCKEND  ---      ---       LVL=0

      00FE7FFDH   BLOCK     ECODE    ---       LVL=0
      REG=7       REGSYM    ---      ---       pAnim
      00FE7FFDH   LINE      ECODE    ---       #157
      00FE7FFFH   LINE      ECODE    ---       #159
      00FE8007H   LINE      ECODE    ---       #161
      00FE8015H   LINE      ECODE    ---       #163
      00FE801FH   LINE      ECODE    ---       #164
      00FE802BH   LINE      ECODE    ---       #165
      00FE802DH   LINE      ECODE    ---       #168
      00FE8033H   LINE      ECODE    ---       #169
      00FE8033H   LINE      ECODE    ---       #170
      00FE8033H   LINE      ECODE    ---       #171
      00FE8035H   LINE      ECODE    ---       #172
      00FE803DH   LINE      ECODE    ---       #174
      00FE804FH   LINE      ECODE    ---       #175
      00FE805BH   LINE      ECODE    ---       #176
      00FE805DH   LINE      ECODE    ---       #179
      00FE8075H   LINE      ECODE    ---       #180
      00FE808DH   LINE      ECODE    ---       #181
      00FE808DH   LINE      ECODE    ---       #182
      00FE8096H   LINE      ECODE    ---       #183
      ---         BLOCKEND  ---      ---       LVL=0

      00FE809CH   BLOCK     ECODE    ---       LVL=0
      00FE809EH   BLOCK     ECODE    NEAR LAB  LVL=1
      REG=3       REGSYM    ---      ---       pAnim
      000007A7H   SYMBOL    EDATA    WORD      elaps
L251 LINKER/LOCATER V4.66.93.0                                                        08/24/2022  19:19:43  PAGE 42


      00FE80B9H   BLOCK     ECODE    NEAR LAB  LVL=2
      000007A9H   SYMBOL    EDATA    FLOAT     p
      00FE8166H   BLOCK     ECODE    NEAR LAB  LVL=3
      000007ADH   SYMBOL    EDATA    ---       anim_end_cb
      ---         BLOCKEND  ---      ---       LVL=3
      ---         BLOCKEND  ---      ---       LVL=2
      ---         BLOCKEND  ---      ---       LVL=1
      00FE809CH   LINE      ECODE    ---       #185
      00FE809EH   LINE      ECODE    ---       #186
      00FE809EH   LINE      ECODE    ---       #187
      00FE80A2H   LINE      ECODE    ---       #189
      00FE80AEH   LINE      ECODE    ---       #190
      00FE80B6H   LINE      ECODE    ---       #191
      00FE80B9H   LINE      ECODE    ---       #192
      00FE80B9H   LINE      ECODE    ---       #194
      00FE80C9H   LINE      ECODE    ---       #195
      00FE80D5H   LINE      ECODE    ---       #196
      00FE80D9H   LINE      ECODE    ---       #197
      00FE80FBH   LINE      ECODE    ---       #198
      00FE8129H   LINE      ECODE    ---       #199
      00FE815AH   LINE      ECODE    ---       #200
      00FE8166H   LINE      ECODE    ---       #201
      00FE8166H   LINE      ECODE    ---       #202
      00FE8172H   LINE      ECODE    ---       #203
      00FE8178H   LINE      ECODE    ---       #204
      00FE8184H   LINE      ECODE    ---       #205
      00FE818AH   LINE      ECODE    ---       #206
      00FE818AH   LINE      ECODE    ---       #207
      00FE8194H   LINE      ECODE    ---       #208
      00FE819DH   LINE      ECODE    ---       #209
      ---         BLOCKEND  ---      ---       LVL=0

      ---         MODULE    ---      ---       oled_draw
      00FE8ABDH   PUBLIC    ECODE    ---       og_screenRefresh?
      00FE8AADH   PUBLIC    ECODE    ---       og_clearDisplayBuf?
      00FE8AC5H   PUBLIC    ECODE    ---       BMPtoBuf?
      00000029H   PUBLIC    EDATA    ---       display_buf
      000007B6H   PUBLIC    EDATA    BYTE      ?BMPtoBuf??BYTE

      00FE8AADH   BLOCK     ECODE    ---       LVL=0
      WR6         REGSYM    ---      WORD      i
      00FE8AADH   LINE      ECODE    ---       #4
      00FE8AADH   LINE      ECODE    ---       #5
      00FE8AADH   LINE      ECODE    ---       #7
      00FE8AAFH   LINE      ECODE    ---       #8
      00FE8ABCH   LINE      ECODE    ---       #9
      ---         BLOCKEND  ---      ---       LVL=0

      00FE8ABDH   BLOCK     ECODE    ---       LVL=0
      00FE8ABDH   LINE      ECODE    ---       #10
      00FE8ABDH   LINE      ECODE    ---       #12
      ---         BLOCKEND  ---      ---       LVL=0

      00FE8AC5H   BLOCK     ECODE    ---       LVL=0
      WR0         REGSYM    ---      INT       x
      WR8         REGSYM    ---      INT       y
      WR30        REGSYM    ---      INT       width
      WR28        REGSYM    ---      INT       height
      R11         REGSYM    ---      BYTE      inverse
      000007BFH   SYMBOL    EDATA    ---       buf1
      00FE8ACFH   BLOCK     ECODE    NEAR LAB  LVL=1
      R15         REGSYM    ---      BYTE      temp
      R10         REGSYM    ---      BYTE      y_b
      R14         REGSYM    ---      BYTE      w_b
      000007C3H   SYMBOL    EDATA    BYTE      h_b
L251 LINKER/LOCATER V4.66.93.0                                                        08/24/2022  19:19:43  PAGE 43


      R13         REGSYM    ---      BYTE      offset1
      R12         REGSYM    ---      BYTE      offset2
      WR24        REGSYM    ---      WORD      i
      WR26        REGSYM    ---      WORD      j
      WR2         REGSYM    ---      WORD      num2
      WR20        REGSYM    ---      WORD      num3
      WR22        REGSYM    ---      WORD      num4
      WR16        REGSYM    ---      WORD      num5
      ---         BLOCKEND  ---      ---       LVL=1
      00FE8AC5H   LINE      ECODE    ---       #14
      00FE8ACFH   LINE      ECODE    ---       #15
      00FE8ACFH   LINE      ECODE    ---       #19
      00FE8AD3H   LINE      ECODE    ---       #20
      00FE8AE5H   LINE      ECODE    ---       #21
      00FE8AE5H   LINE      ECODE    ---       #22
      00FE8AE7H   LINE      ECODE    ---       #23
      00FE8AECH   LINE      ECODE    ---       #25
      00FE8AEEH   LINE      ECODE    ---       #26
      00FE8AF4H   LINE      ECODE    ---       #28
      00FE8B01H   LINE      ECODE    ---       #29
      00FE8B01H   LINE      ECODE    ---       #32
      00FE8B07H   LINE      ECODE    ---       #33
      00FE8B0FH   LINE      ECODE    ---       #35
      00FE8B12H   LINE      ECODE    ---       #36
      00FE8B16H   LINE      ECODE    ---       #37
      00FE8B18H   LINE      ECODE    ---       #38
      00FE8B18H   LINE      ECODE    ---       #39
      00FE8B1AH   LINE      ECODE    ---       #40
      00FE8B20H   LINE      ECODE    ---       #41
      00FE8B38H   LINE      ECODE    ---       #42
      00FE8B41H   LINE      ECODE    ---       #44
      00FE8B4EH   LINE      ECODE    ---       #46
      00FE8B5AH   LINE      ECODE    ---       #47
      00FE8B6AH   LINE      ECODE    ---       #48
      00FE8B74H   LINE      ECODE    ---       #49
      00FE8B84H   LINE      ECODE    ---       #50
      00FE8B88H   LINE      ECODE    ---       #51
      00FE8BB8H   LINE      ECODE    ---       #52
      00FE8BBDH   LINE      ECODE    ---       #54
      00FE8BCFH   LINE      ECODE    ---       #55
      00FE8BD5H   LINE      ECODE    ---       #56
      00FE8BEBH   LINE      ECODE    ---       #57
      00FE8BEFH   LINE      ECODE    ---       #59
      00FE8C19H   LINE      ECODE    ---       #60
      00FE8C32H   LINE      ECODE    ---       #61
      00FE8C3AH   LINE      ECODE    ---       #62
      00FE8C49H   LINE      ECODE    ---       #63
      00FE8C4CH   LINE      ECODE    ---       #65
      00FE8C4CH   LINE      ECODE    ---       #66
      00FE8C4CH   LINE      ECODE    ---       #67
      00FE8C55H   LINE      ECODE    ---       #69
      00FE8C5FH   LINE      ECODE    ---       #70
      00FE8C85H   LINE      ECODE    ---       #71
      00FE8C91H   LINE      ECODE    ---       #72
      00FE8C9DH   LINE      ECODE    ---       #73
      00FE8CA2H   LINE      ECODE    ---       #75
      00FE8CB8H   LINE      ECODE    ---       #76
      00FE8CBEH   LINE      ECODE    ---       #78
      00FE8CC6H   LINE      ECODE    ---       #79
      00FE8CCAH   LINE      ECODE    ---       #80
      00FE8CFAH   LINE      ECODE    ---       #81
      00FE8CFCH   LINE      ECODE    ---       #84
      00FE8D02H   LINE      ECODE    ---       #85
      00FE8D0AH   LINE      ECODE    ---       #86
      00FE8D0EH   LINE      ECODE    ---       #88
L251 LINKER/LOCATER V4.66.93.0                                                        08/24/2022  19:19:43  PAGE 44


      00FE8D38H   LINE      ECODE    ---       #89
      00FE8D51H   LINE      ECODE    ---       #90
      00FE8D59H   LINE      ECODE    ---       #91
      00FE8D59H   LINE      ECODE    ---       #92
      00FE8D68H   LINE      ECODE    ---       #93
      ---         BLOCKEND  ---      ---       LVL=0

      ---         MODULE    ---      ---       oled_font

      ---         MODULE    ---      ---       oled_group
      00FE79BEH   PUBLIC    ECODE    ---       og_group_getFocusIndex?
      00FE7743H   PUBLIC    ECODE    ---       og_group_setPosOffset?
      00FE76C7H   PUBLIC    ECODE    ---       og_group_create?
      00FE79C5H   PUBLIC    ECODE    ---       og_group_hideOffScreenWidget?
      00FE7844H   PUBLIC    ECODE    ---       og_group_focusWidget?
      00FE7800H   PUBLIC    ECODE    ---       og_group_delet?
      00FE76E4H   PUBLIC    ECODE    ---       og_group_addWidget?
      00FE7791H   PUBLIC    ECODE    ---       og_group_addAnimOffset?
      00FE79A2H   PUBLIC    ECODE    ---       og_group_getFocusWidget?
      000007A5H   PUBLIC    EDATA    BYTE      ?og_group_addAnimOffset??BYTE

      00FE76C7H   BLOCK     ECODE    ---       LVL=0
      R7          REGSYM    ---      BYTE      i
      REG=1       REGSYM    ---      ---       pGroup
      00FE76C7H   LINE      ECODE    ---       #5
      00FE76C7H   LINE      ECODE    ---       #6
      00FE76C7H   LINE      ECODE    ---       #7
      00FE76D9H   LINE      ECODE    ---       #15
      00FE76DDH   LINE      ECODE    ---       #16
      00FE76E3H   LINE      ECODE    ---       #17
      00FE76E3H   LINE      ECODE    ---       #18
      ---         BLOCKEND  ---      ---       LVL=0

      00FE76E4H   BLOCK     ECODE    ---       LVL=0
      REG=7       REGSYM    ---      ---       pGroup
      REG=6       REGSYM    ---      ---       pWidget
      R9          REGSYM    ---      BYTE      focus_en
      00FE76EAH   BLOCK     ECODE    NEAR LAB  LVL=1
      REG=0       REGSYM    ---      ---       pItem
      ---         BLOCKEND  ---      ---       LVL=1
      00FE76E4H   LINE      ECODE    ---       #19
      00FE76EAH   LINE      ECODE    ---       #20
      00FE76EAH   LINE      ECODE    ---       #21
      00FE76ECH   LINE      ECODE    ---       #29
      00FE76FFH   LINE      ECODE    ---       #30
      00FE770CH   LINE      ECODE    ---       #31
      00FE7717H   LINE      ECODE    ---       #33
      00FE7734H   LINE      ECODE    ---       #34
      00FE773BH   LINE      ECODE    ---       #35
      00FE773BH   LINE      ECODE    ---       #36
      00FE7742H   LINE      ECODE    ---       #37
      ---         BLOCKEND  ---      ---       LVL=0

      00FE7743H   BLOCK     ECODE    ---       LVL=0
      REG=3       REGSYM    ---      ---       pGroup
      000007A7H   SYMBOL    EDATA    INT       delta_x
      000007A9H   SYMBOL    EDATA    INT       delta_y
      00FE774FH   BLOCK     ECODE    NEAR LAB  LVL=1
      000007ABH   SYMBOL    EDATA    BYTE      i
      000007ACH   SYMBOL    EDATA    ---       pItem
      ---         BLOCKEND  ---      ---       LVL=1
      00FE7743H   LINE      ECODE    ---       #38
      00FE774FH   LINE      ECODE    ---       #39
      00FE774FH   LINE      ECODE    ---       #41
      00FE7757H   LINE      ECODE    ---       #42
L251 LINKER/LOCATER V4.66.93.0                                                        08/24/2022  19:19:43  PAGE 45


      00FE775AH   LINE      ECODE    ---       #44
      00FE777CH   LINE      ECODE    ---       #45
      00FE778EH   LINE      ECODE    ---       #46
      ---         BLOCKEND  ---      ---       LVL=0

      00FE7791H   BLOCK     ECODE    ---       LVL=0
      REG=3       REGSYM    ---      ---       pGroup
      000007A9H   SYMBOL    EDATA    INT       delta_x
      000007ABH   SYMBOL    EDATA    INT       delta_y
      000007ADH   SYMBOL    EDATA    WORD      duration
      000007AFH   SYMBOL    EDATA    ---       anim_end_cb
      00FE779DH   BLOCK     ECODE    NEAR LAB  LVL=1
      000007B3H   SYMBOL    EDATA    BYTE      i
      000007B4H   SYMBOL    EDATA    ---       pItem
      ---         BLOCKEND  ---      ---       LVL=1
      00FE7791H   LINE      ECODE    ---       #48
      00FE779DH   LINE      ECODE    ---       #49
      00FE779DH   LINE      ECODE    ---       #51
      00FE77A5H   LINE      ECODE    ---       #52
      00FE77A8H   LINE      ECODE    ---       #54
      00FE77EBH   LINE      ECODE    ---       #55
      00FE77FDH   LINE      ECODE    ---       #56
      ---         BLOCKEND  ---      ---       LVL=0

      00FE7800H   BLOCK     ECODE    ---       LVL=0
      REG=3       REGSYM    ---      ---       pGroup
      00FE7804H   BLOCK     ECODE    NEAR LAB  LVL=1
      000007A7H   SYMBOL    EDATA    BYTE      i
      000007A8H   SYMBOL    EDATA    ---       pItem
      ---         BLOCKEND  ---      ---       LVL=1
      00FE7800H   LINE      ECODE    ---       #58
      00FE7804H   LINE      ECODE    ---       #59
      00FE7804H   LINE      ECODE    ---       #61
      00FE780CH   LINE      ECODE    ---       #62
      00FE780FH   LINE      ECODE    ---       #64
      00FE7829H   LINE      ECODE    ---       #65
      00FE783BH   LINE      ECODE    ---       #66
      00FE7841H   LINE      ECODE    ---       #67
      ---         BLOCKEND  ---      ---       LVL=0

      00FE7844H   BLOCK     ECODE    ---       LVL=0
      REG=7       REGSYM    ---      ---       pGroup
      R10         REGSYM    ---      BYTE      direction
      00FE784AH   BLOCK     ECODE    NEAR LAB  LVL=1
      REG=0       REGSYM    ---      ---       pWidget
      REG=0       REGSYM    ---      ---       pItem
      WR14        REGSYM    ---      INT       i
      000007A7H   SYMBOL    EDATA    INT       bias_x
      WR12        REGSYM    ---      INT       bias_y
      ---         BLOCKEND  ---      ---       LVL=1
      00FE7844H   LINE      ECODE    ---       #68
      00FE784AH   LINE      ECODE    ---       #69
      00FE784AH   LINE      ECODE    ---       #71
      00FE784CH   LINE      ECODE    ---       #74
      00FE7869H   LINE      ECODE    ---       #75
      00FE7869H   LINE      ECODE    ---       #76
      00FE786BH   LINE      ECODE    ---       #77
      00FE7888H   LINE      ECODE    ---       #78
      00FE788DH   LINE      ECODE    ---       #80
      00FE788DH   LINE      ECODE    ---       #82
      00FE78A6H   LINE      ECODE    ---       #84
      00FE78BFH   LINE      ECODE    ---       #85
      00FE78C1H   LINE      ECODE    ---       #86
      00FE78C1H   LINE      ECODE    ---       #87
      00FE78CAH   LINE      ECODE    ---       #88
L251 LINKER/LOCATER V4.66.93.0                                                        08/24/2022  19:19:43  PAGE 46


      00FE78CEH   LINE      ECODE    ---       #89
      00FE78D0H   LINE      ECODE    ---       #90
      00FE78D2H   LINE      ECODE    ---       #93
      00FE78D2H   LINE      ECODE    ---       #95
      00FE78EBH   LINE      ECODE    ---       #97
      00FE7904H   LINE      ECODE    ---       #98
      00FE7906H   LINE      ECODE    ---       #99
      00FE7906H   LINE      ECODE    ---       #100
      00FE790CH   LINE      ECODE    ---       #101
      00FE7911H   LINE      ECODE    ---       #102
      00FE7913H   LINE      ECODE    ---       #103
      00FE7913H   LINE      ECODE    ---       #104
      00FE7917H   LINE      ECODE    ---       #105
      00FE7928H   LINE      ECODE    ---       #106
      00FE7931H   LINE      ECODE    ---       #107
      00FE7937H   LINE      ECODE    ---       #108
      00FE7943H   LINE      ECODE    ---       #109
      00FE794FH   LINE      ECODE    ---       #111
      00FE7955H   LINE      ECODE    ---       #112
      00FE795FH   LINE      ECODE    ---       #113
      00FE7965H   LINE      ECODE    ---       #114
      00FE7971H   LINE      ECODE    ---       #115
      00FE797BH   LINE      ECODE    ---       #117
      00FE797DH   LINE      ECODE    ---       #118
      00FE7989H   LINE      ECODE    ---       #121
      00FE799FH   LINE      ECODE    ---       #125
      ---         BLOCKEND  ---      ---       LVL=0

      00FE79A2H   BLOCK     ECODE    ---       LVL=0
      REG=0       REGSYM    ---      ---       pGroup
      REG=2       REGSYM    ---      ---       pItem
      00FE79A2H   LINE      ECODE    ---       #127
      00FE79A2H   LINE      ECODE    ---       #128
      00FE79A2H   LINE      ECODE    ---       #129
      00FE79A6H   LINE      ECODE    ---       #137
      00FE79BDH   LINE      ECODE    ---       #138
      ---         BLOCKEND  ---      ---       LVL=0

      00FE79BEH   BLOCK     ECODE    ---       LVL=0
      REG=0       REGSYM    ---      ---       pGroup
      00FE79BEH   LINE      ECODE    ---       #139
      00FE79BEH   LINE      ECODE    ---       #141
      00FE79C4H   LINE      ECODE    ---       #142
      ---         BLOCKEND  ---      ---       LVL=0

      00FE79C5H   BLOCK     ECODE    ---       LVL=0
      REG=3       REGSYM    ---      ---       pGroup
      00FE79C9H   BLOCK     ECODE    NEAR LAB  LVL=1
      000007A7H   SYMBOL    EDATA    BYTE      i
      000007A8H   SYMBOL    EDATA    ---       pItem
      000007ACH   SYMBOL    EDATA    ---       pWidget
      ---         BLOCKEND  ---      ---       LVL=1
      00FE79C5H   LINE      ECODE    ---       #143
      00FE79C9H   LINE      ECODE    ---       #144
      00FE79C9H   LINE      ECODE    ---       #146
      00FE79D1H   LINE      ECODE    ---       #148
      00FE79E2H   LINE      ECODE    ---       #149
      00FE79E2H   LINE      ECODE    ---       #150
      00FE79E5H   LINE      ECODE    ---       #152
      00FE79FFH   LINE      ECODE    ---       #153
      00FE7A16H   LINE      ECODE    ---       #154
      00FE7A18H   LINE      ECODE    ---       #155
      00FE7A47H   LINE      ECODE    ---       #156
      00FE7A50H   LINE      ECODE    ---       #157
      00FE7A62H   LINE      ECODE    ---       #158
L251 LINKER/LOCATER V4.66.93.0                                                        08/24/2022  19:19:43  PAGE 47


      ---         BLOCKEND  ---      ---       LVL=0

      ---         MODULE    ---      ---       oled_gui
      00FEADFBH   PUBLIC    ECODE    ---       og_run?
      00FEADA1H   PUBLIC    ECODE    ---       og_getTimestamp?
      00FEADA6H   PUBLIC    ECODE    ---       og_tickElaps?
      00FEADCBH   PUBLIC    ECODE    ---       og_init?
      00FEAD96H   PUBLIC    ECODE    ---       og_timeTick?
      00010000H   SYMBOL    XDATA    ---       mem_buf
      00000A9BH   SYMBOL    EDATA    WORD      og_tick

      00FEAD96H   BLOCK     ECODE    ---       LVL=0
      00FEAD96H   LINE      ECODE    ---       #4
      00FEAD96H   LINE      ECODE    ---       #6
      00FEADA0H   LINE      ECODE    ---       #7
      ---         BLOCKEND  ---      ---       LVL=0

      00FEADA1H   BLOCK     ECODE    ---       LVL=0
      00FEADA1H   LINE      ECODE    ---       #9
      00FEADA1H   LINE      ECODE    ---       #11
      00FEADA5H   LINE      ECODE    ---       #12
      ---         BLOCKEND  ---      ---       LVL=0

      00FEADA6H   BLOCK     ECODE    ---       LVL=0
      WR4         REGSYM    ---      WORD      pre_tick
      00FEADA6H   LINE      ECODE    ---       #14
      00FEADA8H   LINE      ECODE    ---       #16
      00FEADAEH   LINE      ECODE    ---       #18
      00FEADB6H   LINE      ECODE    ---       #19
      00FEADB8H   LINE      ECODE    ---       #22
      00FEADC2H   LINE      ECODE    ---       #23
      00FEADC8H   LINE      ECODE    ---       #24
      00FEADC8H   LINE      ECODE    ---       #25
      00FEADCAH   LINE      ECODE    ---       #26
      ---         BLOCKEND  ---      ---       LVL=0

      00FEADCBH   BLOCK     ECODE    ---       LVL=0
      WR6         REGSYM    ---      WORD      i
      00FEADCBH   LINE      ECODE    ---       #27
      00FEADCBH   LINE      ECODE    ---       #28
      00FEADCBH   LINE      ECODE    ---       #31
      00FEADCDH   LINE      ECODE    ---       #32
      00FEADE3H   LINE      ECODE    ---       #33
      00FEADF3H   LINE      ECODE    ---       #35
      00FEADF7H   LINE      ECODE    ---       #37
      ---         BLOCKEND  ---      ---       LVL=0

      00FEADFBH   BLOCK     ECODE    ---       LVL=0
      00000A9DH   SYMBOL    EDATA    WORD      gui_timestamp
      00FEADFBH   LINE      ECODE    ---       #40
      00FEADFBH   LINE      ECODE    ---       #41
      00FEADFBH   LINE      ECODE    ---       #45
      00FEAE09H   LINE      ECODE    ---       #47
      00FEAE11H   LINE      ECODE    ---       #49
      00FEAE15H   LINE      ECODE    ---       #51
      00FEAE19H   LINE      ECODE    ---       #52
      ---         BLOCKEND  ---      ---       LVL=0

      ---         MODULE    ---      ---       oled_widget
      00FE8644H   PUBLIC    ECODE    ---       og_widget_setPosOffset?
      00FE8618H   PUBLIC    ECODE    ---       og_widget_setShow?
      00FE865BH   PUBLIC    ECODE    ---       og_widget_setAlignment?
      00FE84E7H   PUBLIC    ECODE    ---       og_widget_create?
      00FE863AH   PUBLIC    ECODE    ---       og_widget_setPos?
      00FE8550H   PUBLIC    ECODE    ---       og_widget_delet?
L251 LINKER/LOCATER V4.66.93.0                                                        08/24/2022  19:19:43  PAGE 48


      00FE8500H   PUBLIC    ECODE    ---       og_widget_add?
      00FE8750H   PUBLIC    ECODE    ---       og_widget_draw?
      00FE84D7H   PUBLIC    ECODE    ---       og_widget_init?
      00000A92H   SYMBOL    EDATA    ---       pLast
      00000A96H   SYMBOL    EDATA    BYTE      ucSum
      00000A97H   SYMBOL    EDATA    ---       pFirst

      00FE84D7H   BLOCK     ECODE    ---       LVL=0
      00FE84D7H   LINE      ECODE    ---       #31
      00FE84D7H   LINE      ECODE    ---       #33
      00FE84DDH   LINE      ECODE    ---       #34
      00FE84E1H   LINE      ECODE    ---       #35
      00FE84E6H   LINE      ECODE    ---       #36
      ---         BLOCKEND  ---      ---       LVL=0

      00FE84E7H   BLOCK     ECODE    ---       LVL=0
      REG=1       REGSYM    ---      ---       pWidget
      00FE84E7H   LINE      ECODE    ---       #37
      00FE84E7H   LINE      ECODE    ---       #38
      00FE84E7H   LINE      ECODE    ---       #39
      00FE84EFH   LINE      ECODE    ---       #47
      00FE84F5H   LINE      ECODE    ---       #48
      00FE84FFH   LINE      ECODE    ---       #49
      00FE84FFH   LINE      ECODE    ---       #50
      ---         BLOCKEND  ---      ---       LVL=0

      00FE8500H   BLOCK     ECODE    ---       LVL=0
      REG=7       REGSYM    ---      ---       pWidget
      00FE8500H   LINE      ECODE    ---       #51
      00FE8502H   LINE      ECODE    ---       #60
      00FE8508H   LINE      ECODE    ---       #62
      00FE8512H   LINE      ECODE    ---       #63
      00FE851AH   LINE      ECODE    ---       #64
      00FE851EH   LINE      ECODE    ---       #65
      00FE851EH   LINE      ECODE    ---       #66
      00FE8520H   LINE      ECODE    ---       #69
      00FE852CH   LINE      ECODE    ---       #70
      00FE8536H   LINE      ECODE    ---       #71
      00FE8542H   LINE      ECODE    ---       #72
      00FE8546H   LINE      ECODE    ---       #73
      00FE8546H   LINE      ECODE    ---       #74
      00FE854FH   LINE      ECODE    ---       #75
      ---         BLOCKEND  ---      ---       LVL=0

      00FE8550H   BLOCK     ECODE    ---       LVL=0
      REG=3       REGSYM    ---      ---       pWidget
      00FE8550H   LINE      ECODE    ---       #76
      00FE8554H   LINE      ECODE    ---       #86
      00FE855CH   LINE      ECODE    ---       #88
      00FE856AH   LINE      ECODE    ---       #90
      00FE8574H   LINE      ECODE    ---       #91
      00FE8580H   LINE      ECODE    ---       #92
      00FE8582H   LINE      ECODE    ---       #95
      00FE8588H   LINE      ECODE    ---       #96
      00FE8588H   LINE      ECODE    ---       #97
      00FE8588H   LINE      ECODE    ---       #98
      00FE858AH   LINE      ECODE    ---       #99
      00FE8592H   LINE      ECODE    ---       #101
      00FE85A4H   LINE      ECODE    ---       #102
      00FE85B0H   LINE      ECODE    ---       #103
      00FE85B2H   LINE      ECODE    ---       #106
      00FE85CAH   LINE      ECODE    ---       #107
      00FE85E2H   LINE      ECODE    ---       #108
      00FE85E2H   LINE      ECODE    ---       #109
      00FE85EBH   LINE      ECODE    ---       #110
L251 LINKER/LOCATER V4.66.93.0                                                        08/24/2022  19:19:43  PAGE 49


      00FE85FDH   LINE      ECODE    ---       #112
      00FE85FDH   LINE      ECODE    ---       #113
      00FE85FDH   LINE      ECODE    ---       #114
      00FE85FDH   LINE      ECODE    ---       #116
      00FE860BH   LINE      ECODE    ---       #117
      00FE860FH   LINE      ECODE    ---       #118
      00FE860FH   LINE      ECODE    ---       #120
      00FE860FH   LINE      ECODE    ---       #121
      00FE860FH   LINE      ECODE    ---       #122
      00FE860FH   LINE      ECODE    ---       #123
      00FE860FH   LINE      ECODE    ---       #124
      00FE860FH   LINE      ECODE    ---       #125
      00FE8615H   LINE      ECODE    ---       #126
      00FE8615H   LINE      ECODE    ---       #127
      ---         BLOCKEND  ---      ---       LVL=0

      00FE8618H   BLOCK     ECODE    ---       LVL=0
      REG=0       REGSYM    ---      ---       pWidget
      R7          REGSYM    ---      BYTE      k
      00FE8618H   LINE      ECODE    ---       #128
      00FE861AH   LINE      ECODE    ---       #137
      00FE861EH   LINE      ECODE    ---       #138
      00FE862BH   LINE      ECODE    ---       #140
      00FE8639H   LINE      ECODE    ---       #141
      ---         BLOCKEND  ---      ---       LVL=0

      00FE863AH   BLOCK     ECODE    ---       LVL=0
      REG=2       REGSYM    ---      ---       pWidget
      WR6         REGSYM    ---      INT       x
      WR4         REGSYM    ---      INT       y
      00FE863AH   LINE      ECODE    ---       #142
      00FE863CH   LINE      ECODE    ---       #151
      00FE863FH   LINE      ECODE    ---       #152
      00FE8643H   LINE      ECODE    ---       #153
      ---         BLOCKEND  ---      ---       LVL=0

      00FE8644H   BLOCK     ECODE    ---       LVL=0
      REG=2       REGSYM    ---      ---       pWidget
      WR30        REGSYM    ---      INT       x
      WR4         REGSYM    ---      INT       y
      00FE8644H   LINE      ECODE    ---       #154
      00FE8648H   LINE      ECODE    ---       #163
      00FE8650H   LINE      ECODE    ---       #164
      00FE865AH   LINE      ECODE    ---       #165
      ---         BLOCKEND  ---      ---       LVL=0

      00FE865BH   BLOCK     ECODE    ---       LVL=0
      REG=7       REGSYM    ---      ---       pWidget
      R11         REGSYM    ---      BYTE      alignment
      00FE865BH   LINE      ECODE    ---       #166
      00FE865DH   LINE      ECODE    ---       #175
      00FE8691H   LINE      ECODE    ---       #177
      00FE8691H   LINE      ECODE    ---       #178
      00FE8691H   LINE      ECODE    ---       #179
      00FE8693H   LINE      ECODE    ---       #180
      00FE8693H   LINE      ECODE    ---       #181
      00FE8693H   LINE      ECODE    ---       #182
      00FE8695H   LINE      ECODE    ---       #183
      00FE8695H   LINE      ECODE    ---       #184
      00FE8697H   LINE      ECODE    ---       #185
      00FE8699H   LINE      ECODE    ---       #186
      00FE8699H   LINE      ECODE    ---       #187
      00FE86A3H   LINE      ECODE    ---       #188
      00FE86A5H   LINE      ECODE    ---       #189
      00FE86A5H   LINE      ECODE    ---       #190
L251 LINKER/LOCATER V4.66.93.0                                                        08/24/2022  19:19:43  PAGE 50


      00FE86BAH   LINE      ECODE    ---       #191
      00FE86BBH   LINE      ECODE    ---       #192
      00FE86BBH   LINE      ECODE    ---       #193
      00FE86CDH   LINE      ECODE    ---       #194
      00FE86CFH   LINE      ECODE    ---       #195
      00FE86CFH   LINE      ECODE    ---       #196
      00FE86D4H   LINE      ECODE    ---       #197
      00FE86D6H   LINE      ECODE    ---       #198
      00FE86D8H   LINE      ECODE    ---       #199
      00FE86D8H   LINE      ECODE    ---       #200
      00FE86EDH   LINE      ECODE    ---       #201
      00FE86EFH   LINE      ECODE    ---       #202
      00FE86F1H   LINE      ECODE    ---       #203
      00FE86F1H   LINE      ECODE    ---       #204
      00FE86FEH   LINE      ECODE    ---       #205
      00FE8700H   LINE      ECODE    ---       #206
      00FE8702H   LINE      ECODE    ---       #207
      00FE8702H   LINE      ECODE    ---       #208
      00FE8707H   LINE      ECODE    ---       #209
      00FE8711H   LINE      ECODE    ---       #210
      00FE8713H   LINE      ECODE    ---       #211
      00FE8713H   LINE      ECODE    ---       #212
      00FE8728H   LINE      ECODE    ---       #213
      00FE8732H   LINE      ECODE    ---       #214
      00FE8734H   LINE      ECODE    ---       #215
      00FE8734H   LINE      ECODE    ---       #216
      00FE8741H   LINE      ECODE    ---       #217
      00FE874FH   LINE      ECODE    ---       #218
      00FE874FH   LINE      ECODE    ---       #219
      00FE874FH   LINE      ECODE    ---       #220
      ---         BLOCKEND  ---      ---       LVL=0

      00FE8750H   BLOCK     ECODE    ---       LVL=0
      00FE8752H   BLOCK     ECODE    NEAR LAB  LVL=1
      REG=3       REGSYM    ---      ---       pWidget
      00FE87C7H   SYMBOL    ECODE    NEAR LAB  next
      ---         BLOCKEND  ---      ---       LVL=1
      00FE8750H   LINE      ECODE    ---       #223
      00FE8752H   LINE      ECODE    ---       #224
      00FE8752H   LINE      ECODE    ---       #225
      00FE8756H   LINE      ECODE    ---       #226
      00FE875AH   LINE      ECODE    ---       #228
      00FE875CH   LINE      ECODE    ---       #230
      00FE8763H   LINE      ECODE    ---       #231
      00FE8763H   LINE      ECODE    ---       #232
      00FE8778H   LINE      ECODE    ---       #233
      00FE8778H   LINE      ECODE    ---       #234
      00FE878EH   LINE      ECODE    ---       #235
      00FE878EH   LINE      ECODE    ---       #237
      00FE87A1H   LINE      ECODE    ---       #240
      00FE87A1H   LINE      ECODE    ---       #242
      00FE87A7H   LINE      ECODE    ---       #243
      00FE87A9H   LINE      ECODE    ---       #248
      00FE87A9H   LINE      ECODE    ---       #250
      00FE87AFH   LINE      ECODE    ---       #251
      00FE87B1H   LINE      ECODE    ---       #264
      00FE87B1H   LINE      ECODE    ---       #266
      00FE87B7H   LINE      ECODE    ---       #267
      00FE87B9H   LINE      ECODE    ---       #272
      00FE87B9H   LINE      ECODE    ---       #274
      00FE87BFH   LINE      ECODE    ---       #275
      00FE87C1H   LINE      ECODE    ---       #280
      00FE87C1H   LINE      ECODE    ---       #282
      00FE87C7H   LINE      ECODE    ---       #283
      00FE87C7H   LINE      ECODE    ---       #286
L251 LINKER/LOCATER V4.66.93.0                                                        08/24/2022  19:19:43  PAGE 51


      00FE87C7H   LINE      ECODE    ---       #287
      00FE87C7H   LINE      ECODE    ---       #288
      00FE87D1H   LINE      ECODE    ---       #289
      00FE87D7H   LINE      ECODE    ---       #290
      00FE87DBH   LINE      ECODE    ---       #291
      ---         BLOCKEND  ---      ---       LVL=0

      ---         MODULE    ---      ---       GT20L16S1Y
      00FE9CF4H   PUBLIC    ECODE    ---       GT20L16S1YGetCharGB2312_15X16?
      00FE9B8CH   PUBLIC    ECODE    ---       GT20L16S1YGetCharASCII_5X7?
      00FE9BDCH   PUBLIC    ECODE    ---       GT20L16S1YGetCharASCII_7X8?
      00FE9C2EH   PUBLIC    ECODE    ---       GT20L16S1YGetCharASCII_8X16?
      00FE9C91H   PUBLIC    ECODE    ---       GT20L16S1YGetCharASCII_8X16_BOLD?
      00FEB92FH   PUBLIC    HCONST   ---       font_addr
      000000D0H   SFRSYM    DATA     BYTE      PSW
      000000C0H.4 SFRSYM    DATA     BIT       P44
      00000088H   SFRSYM    DATA     BYTE      TCON
      00000098H   SFRSYM    DATA     BYTE      SCON
      000000B8H   SFRSYM    DATA     BYTE      IP
      000000A8H   SFRSYM    DATA     BYTE      IE
      000000F8H   SFRSYM    DATA     BYTE      P7
      000000E8H   SFRSYM    DATA     BYTE      P6
      000000C8H   SFRSYM    DATA     BYTE      P5
      000000C0H   SFRSYM    DATA     BYTE      P4
      000000B0H   SFRSYM    DATA     BYTE      P3
      000000A0H   SFRSYM    DATA     BYTE      P2
      00000090H   SFRSYM    DATA     BYTE      P1
      00000080H   SFRSYM    DATA     BYTE      P0

      00FE9B8CH   BLOCK     ECODE    ---       LVL=0
      R7          REGSYM    ---      BYTE      s
      REG=3       REGSYM    ---      ---       ptr
      00FE9B90H   BLOCK     ECODE    NEAR LAB  LVL=1
      000007BFH   SYMBOL    EDATA    DWORD     addr
      ---         BLOCKEND  ---      ---       LVL=1
      00FE9B8CH   LINE      ECODE    ---       #5
      00FE9B90H   LINE      ECODE    ---       #6
      00FE9B90H   LINE      ECODE    ---       #7
      00FE9BB5H   LINE      ECODE    ---       #8
      00FE9BB7H   LINE      ECODE    ---       #9
      00FE9BBDH   LINE      ECODE    ---       #10
      00FE9BCDH   LINE      ECODE    ---       #11
      00FE9BD7H   LINE      ECODE    ---       #13
      00FE9BD9H   LINE      ECODE    ---       #14
      ---         BLOCKEND  ---      ---       LVL=0

      00FE9BDCH   BLOCK     ECODE    ---       LVL=0
      R7          REGSYM    ---      BYTE      s
      REG=3       REGSYM    ---      ---       ptr
      00FE9BE0H   BLOCK     ECODE    NEAR LAB  LVL=1
      000007BFH   SYMBOL    EDATA    DWORD     addr
      ---         BLOCKEND  ---      ---       LVL=1
      00FE9BDCH   LINE      ECODE    ---       #15
      00FE9BE0H   LINE      ECODE    ---       #16
      00FE9BE0H   LINE      ECODE    ---       #17
      00FE9C07H   LINE      ECODE    ---       #18
      00FE9C09H   LINE      ECODE    ---       #19
      00FE9C0FH   LINE      ECODE    ---       #20
      00FE9C1FH   LINE      ECODE    ---       #21
      00FE9C29H   LINE      ECODE    ---       #23
      00FE9C2BH   LINE      ECODE    ---       #24
      ---         BLOCKEND  ---      ---       LVL=0

      00FE9C2EH   BLOCK     ECODE    ---       LVL=0
      R11         REGSYM    ---      BYTE      s
L251 LINKER/LOCATER V4.66.93.0                                                        08/24/2022  19:19:43  PAGE 52


      REG=3       REGSYM    ---      ---       ptr
      000007BFH   SYMBOL    EDATA    WORD      offset
      00FE9C36H   BLOCK     ECODE    NEAR LAB  LVL=1
      000007C1H   SYMBOL    EDATA    DWORD     addr
      ---         BLOCKEND  ---      ---       LVL=1
      00FE9C2EH   LINE      ECODE    ---       #25
      00FE9C36H   LINE      ECODE    ---       #26
      00FE9C36H   LINE      ECODE    ---       #27
      00FE9C5CH   LINE      ECODE    ---       #28
      00FE9C5EH   LINE      ECODE    ---       #29
      00FE9C64H   LINE      ECODE    ---       #30
      00FE9C74H   LINE      ECODE    ---       #31
      00FE9C7EH   LINE      ECODE    ---       #32
      00FE9C82H   LINE      ECODE    ---       #33
      00FE9C8CH   LINE      ECODE    ---       #34
      00FE9C8EH   LINE      ECODE    ---       #35
      ---         BLOCKEND  ---      ---       LVL=0

      00FE9C91H   BLOCK     ECODE    ---       LVL=0
      R11         REGSYM    ---      BYTE      s
      REG=3       REGSYM    ---      ---       ptr
      000007BFH   SYMBOL    EDATA    WORD      offset
      00FE9C99H   BLOCK     ECODE    NEAR LAB  LVL=1
      000007C1H   SYMBOL    EDATA    DWORD     addr
      ---         BLOCKEND  ---      ---       LVL=1
      00FE9C91H   LINE      ECODE    ---       #36
      00FE9C99H   LINE      ECODE    ---       #37
      00FE9C99H   LINE      ECODE    ---       #38
      00FE9CBFH   LINE      ECODE    ---       #39
      00FE9CC1H   LINE      ECODE    ---       #40
      00FE9CC7H   LINE      ECODE    ---       #41
      00FE9CD7H   LINE      ECODE    ---       #42
      00FE9CE1H   LINE      ECODE    ---       #43
      00FE9CE5H   LINE      ECODE    ---       #44
      00FE9CEFH   LINE      ECODE    ---       #45
      00FE9CF1H   LINE      ECODE    ---       #46
      ---         BLOCKEND  ---      ---       LVL=0

      00FE9CF4H   BLOCK     ECODE    ---       LVL=0
      WR2         REGSYM    ---      WORD      s
      REG=3       REGSYM    ---      ---       ptr
      000007BFH   SYMBOL    EDATA    WORD      offset
      00FE9CFEH   BLOCK     ECODE    NEAR LAB  LVL=1
      000007C1H   SYMBOL    EDATA    DWORD     addr
      ---         BLOCKEND  ---      ---       LVL=1
      00FE9CF4H   LINE      ECODE    ---       #47
      00FE9CFEH   LINE      ECODE    ---       #48
      00FE9CFEH   LINE      ECODE    ---       #50
      00FE9D04H   LINE      ECODE    ---       #51
      00FE9D34H   LINE      ECODE    ---       #52
      00FE9D3EH   LINE      ECODE    ---       #53
      00FE9D70H   LINE      ECODE    ---       #54
      00FE9D72H   LINE      ECODE    ---       #55
      00FE9D78H   LINE      ECODE    ---       #56
      00FE9D88H   LINE      ECODE    ---       #57
      00FE9D92H   LINE      ECODE    ---       #58
      00FE9D96H   LINE      ECODE    ---       #59
      00FE9DA0H   LINE      ECODE    ---       #60
      00FE9DA2H   LINE      ECODE    ---       #61
      ---         BLOCKEND  ---      ---       LVL=0

      ---         MODULE    ---      ---       oled_bmp
      00FEAD6FH   PUBLIC    ECODE    ---       og_bmp_draw?
      00FEAD4DH   PUBLIC    ECODE    ---       og_bmp_setBmp?
      00FEACECH   PUBLIC    ECODE    ---       og_bmp_create?
L251 LINKER/LOCATER V4.66.93.0                                                        08/24/2022  19:19:43  PAGE 53



      00FEACECH   BLOCK     ECODE    ---       LVL=0
      REG=3       REGSYM    ---      ---       psBMP
      000007A7H   SYMBOL    EDATA    INT       x
      000007A9H   SYMBOL    EDATA    INT       y
      00FEACF8H   BLOCK     ECODE    NEAR LAB  LVL=1
      000007ABH   SYMBOL    EDATA    ---       pWidget
      ---         BLOCKEND  ---      ---       LVL=1
      00FEACECH   LINE      ECODE    ---       #3
      00FEACF8H   LINE      ECODE    ---       #4
      00FEACF8H   LINE      ECODE    ---       #5
      00FEAD02H   LINE      ECODE    ---       #13
      00FEAD0EH   LINE      ECODE    ---       #14
      00FEAD17H   LINE      ECODE    ---       #15
      00FEAD1FH   LINE      ECODE    ---       #16
      00FEAD2AH   LINE      ECODE    ---       #17
      00FEAD36H   LINE      ECODE    ---       #18
      00FEAD3EH   LINE      ECODE    ---       #19
      00FEAD46H   LINE      ECODE    ---       #20
      00FEAD4AH   LINE      ECODE    ---       #21
      ---         BLOCKEND  ---      ---       LVL=0

      00FEAD4DH   BLOCK     ECODE    ---       LVL=0
      REG=7       REGSYM    ---      ---       pWidget
      REG=2       REGSYM    ---      ---       psBMP
      00FEAD4DH   LINE      ECODE    ---       #22
      00FEAD51H   LINE      ECODE    ---       #36
      00FEAD5AH   LINE      ECODE    ---       #37
      00FEAD62H   LINE      ECODE    ---       #38
      00FEAD6EH   LINE      ECODE    ---       #39
      ---         BLOCKEND  ---      ---       LVL=0

      00FEAD6FH   BLOCK     ECODE    ---       LVL=0
      REG=7       REGSYM    ---      ---       pWidget
      00FEAD6FH   LINE      ECODE    ---       #74
      00FEAD71H   LINE      ECODE    ---       #88
      ---         BLOCKEND  ---      ---       LVL=0

      ---         MODULE    ---      ---       oled_slider
      00FE82A4H   PUBLIC    ECODE    ---       og_slider_create?
      00FE81A0H   PUBLIC    ECODE    ---       int16ToStr?
      00FE8385H   PUBLIC    ECODE    ---       og_slider_draw?
      00FE8376H   PUBLIC    ECODE    ---       og_slider_getValue?
      00FE833BH   PUBLIC    ECODE    ---       og_slider_setValue?
      000007A4H   PUBLIC    EDATA    BYTE      ?og_slider_create??BYTE

      00FE81A0H   BLOCK     ECODE    ---       LVL=0
      REG=7       REGSYM    ---      ---       str
      WR8         REGSYM    ---      INT       num
      00FE81A4H   BLOCK     ECODE    NEAR LAB  LVL=1
      R10         REGSYM    ---      BYTE      i
      00FE820FH   SYMBOL    ECODE    NEAR LAB  step1
      00FE8236H   SYMBOL    ECODE    NEAR LAB  step2
      00FE825DH   SYMBOL    ECODE    NEAR LAB  step3
      00FE8284H   SYMBOL    ECODE    NEAR LAB  step4
      ---         BLOCKEND  ---      ---       LVL=1
      00FE81A0H   LINE      ECODE    ---       #5
      00FE81A4H   LINE      ECODE    ---       #6
      00FE81A4H   LINE      ECODE    ---       #7
      00FE81A6H   LINE      ECODE    ---       #8
      00FE81ACH   LINE      ECODE    ---       #10
      00FE81B5H   LINE      ECODE    ---       #11
      00FE81BBH   LINE      ECODE    ---       #12
      00FE81BBH   LINE      ECODE    ---       #13
      00FE81C1H   LINE      ECODE    ---       #15
L251 LINKER/LOCATER V4.66.93.0                                                        08/24/2022  19:19:43  PAGE 54


      00FE81DEH   LINE      ECODE    ---       #16
      00FE81E0H   LINE      ECODE    ---       #17
      00FE81E0H   LINE      ECODE    ---       #18
      00FE81E6H   LINE      ECODE    ---       #20
      00FE81ECH   LINE      ECODE    ---       #21
      00FE81EEH   LINE      ECODE    ---       #22
      00FE81EEH   LINE      ECODE    ---       #23
      00FE81F4H   LINE      ECODE    ---       #25
      00FE81FAH   LINE      ECODE    ---       #26
      00FE81FCH   LINE      ECODE    ---       #27
      00FE81FCH   LINE      ECODE    ---       #28
      00FE8202H   LINE      ECODE    ---       #30
      00FE8208H   LINE      ECODE    ---       #31
      00FE820AH   LINE      ECODE    ---       #32
      00FE820AH   LINE      ECODE    ---       #35
      00FE820CH   LINE      ECODE    ---       #36
      00FE820FH   LINE      ECODE    ---       #37
      00FE820FH   LINE      ECODE    ---       #38
      00FE820FH   LINE      ECODE    ---       #39
      00FE8236H   LINE      ECODE    ---       #40
      00FE8236H   LINE      ECODE    ---       #41
      00FE825DH   LINE      ECODE    ---       #42
      00FE825DH   LINE      ECODE    ---       #43
      00FE8284H   LINE      ECODE    ---       #44
      00FE8284H   LINE      ECODE    ---       #45
      00FE82A1H   LINE      ECODE    ---       #46
      00FE82A3H   LINE      ECODE    ---       #47
      ---         BLOCKEND  ---      ---       LVL=0

      00FE82A4H   BLOCK     ECODE    ---       LVL=0
      000007A7H   SYMBOL    EDATA    INT       min
      000007A9H   SYMBOL    EDATA    INT       max
      000007ABH   SYMBOL    EDATA    INT       value
      R13         REGSYM    ---      BYTE      length
      WR14        REGSYM    ---      INT       x
      000007ADH   SYMBOL    EDATA    INT       y
      00FE82B8H   BLOCK     ECODE    NEAR LAB  LVL=1
      000007AFH   SYMBOL    EDATA    ---       pWidget
      REG=0       REGSYM    ---      ---       pSlider
      ---         BLOCKEND  ---      ---       LVL=1
      00FE82A4H   LINE      ECODE    ---       #48
      00FE82B8H   LINE      ECODE    ---       #49
      00FE82B8H   LINE      ECODE    ---       #52
      00FE82C0H   LINE      ECODE    ---       #53
      00FE82CAH   LINE      ECODE    ---       #72
      00FE82D1H   LINE      ECODE    ---       #73
      00FE82DDH   LINE      ECODE    ---       #74
      00FE82EDH   LINE      ECODE    ---       #75
      00FE82F9H   LINE      ECODE    ---       #76
      00FE8303H   LINE      ECODE    ---       #77
      00FE830FH   LINE      ECODE    ---       #78
      00FE8316H   LINE      ECODE    ---       #79
      00FE831EH   LINE      ECODE    ---       #80
      00FE832AH   LINE      ECODE    ---       #81
      00FE8332H   LINE      ECODE    ---       #82
      00FE8336H   LINE      ECODE    ---       #83
      ---         BLOCKEND  ---      ---       LVL=0

      00FE833BH   BLOCK     ECODE    ---       LVL=0
      REG=7       REGSYM    ---      ---       pWidget
      WR10        REGSYM    ---      INT       value
      00FE833FH   BLOCK     ECODE    NEAR LAB  LVL=1
      REG=0       REGSYM    ---      ---       pSlider
      ---         BLOCKEND  ---      ---       LVL=1
      00FE833BH   LINE      ECODE    ---       #84
L251 LINKER/LOCATER V4.66.93.0                                                        08/24/2022  19:19:43  PAGE 55


      00FE833FH   LINE      ECODE    ---       #85
      00FE833FH   LINE      ECODE    ---       #86
      00FE8347H   LINE      ECODE    ---       #99
      00FE834FH   LINE      ECODE    ---       #100
      00FE834FH   LINE      ECODE    ---       #101
      00FE8363H   LINE      ECODE    ---       #102
      00FE8375H   LINE      ECODE    ---       #103
      ---         BLOCKEND  ---      ---       LVL=0

      00FE8376H   BLOCK     ECODE    ---       LVL=0
      REG=2       REGSYM    ---      ---       pWidget
      00FE8378H   BLOCK     ECODE    NEAR LAB  LVL=1
      REG=1       REGSYM    ---      ---       pSlider
      ---         BLOCKEND  ---      ---       LVL=1
      00FE8376H   LINE      ECODE    ---       #104
      00FE8378H   LINE      ECODE    ---       #105
      00FE8378H   LINE      ECODE    ---       #106
      00FE8380H   LINE      ECODE    ---       #119
      00FE8384H   LINE      ECODE    ---       #120
      ---         BLOCKEND  ---      ---       LVL=0

      00FE8385H   BLOCK     ECODE    ---       LVL=0
      REG=3       REGSYM    ---      ---       pWidget
      00FE8389H   BLOCK     ECODE    NEAR LAB  LVL=1
      000007A7H   SYMBOL    EDATA    ---       pSlider
      000007ABH   SYMBOL    EDATA    ---       str
      000007B3H   SYMBOL    EDATA    BYTE      i
      000007B4H   SYMBOL    EDATA    BYTE      temp
      000007B5H   SYMBOL    EDATA    ---       ptr
      000007B9H   SYMBOL    EDATA    BYTE      slider_len
      ---         BLOCKEND  ---      ---       LVL=1
      00FE8385H   LINE      ECODE    ---       #121
      00FE8389H   LINE      ECODE    ---       #122
      00FE8389H   LINE      ECODE    ---       #123
      00FE8395H   LINE      ECODE    ---       #140
      00FE83A5H   LINE      ECODE    ---       #148
      00FE83BBH   LINE      ECODE    ---       #149
      00FE83C9H   LINE      ECODE    ---       #150
      00FE83CCH   LINE      ECODE    ---       #155
      00FE83EDH   LINE      ECODE    ---       #157
      00FE8400H   LINE      ECODE    ---       #158
      00FE840AH   LINE      ECODE    ---       #159
      00FE840EH   LINE      ECODE    ---       #161
      00FE841FH   LINE      ECODE    ---       #162
      00FE8432H   LINE      ECODE    ---       #163
      00FE847DH   LINE      ECODE    ---       #164
      00FE848CH   LINE      ECODE    ---       #165
      00FE849BH   LINE      ECODE    ---       #166
      00FE84ABH   LINE      ECODE    ---       #167
      00FE84CCH   LINE      ECODE    ---       #168
      00FE84D4H   LINE      ECODE    ---       #169
      ---         BLOCKEND  ---      ---       LVL=0

      ---         MODULE    ---      ---       oled_switch
      00FEA731H   PUBLIC    ECODE    ---       og_switch_setStatus?
      00FEA63FH   PUBLIC    ECODE    ---       og_switch_create?
      00FEA78CH   PUBLIC    ECODE    ---       og_switch_draw?
      00FEA780H   PUBLIC    ECODE    ---       og_switch_getStatus?
      00FF18E4H   SYMBOL    CODE     ---       bmp_switch16
      00FF1944H   SYMBOL    CODE     ---       bmp_switch8

      00FEA63FH   BLOCK     ECODE    ---       LVL=0
      R14         REGSYM    ---      BYTE      ucSize
      R15         REGSYM    ---      BYTE      ucStatus
      000007A7H   SYMBOL    EDATA    INT       x
L251 LINKER/LOCATER V4.66.93.0                                                        08/24/2022  19:19:43  PAGE 56


      WR12        REGSYM    ---      INT       y
      00FEA64BH   BLOCK     ECODE    NEAR LAB  LVL=1
      000007A9H   SYMBOL    EDATA    ---       pWidget
      ---         BLOCKEND  ---      ---       LVL=1
      00FEA63FH   LINE      ECODE    ---       #4
      00FEA64BH   LINE      ECODE    ---       #5
      00FEA64BH   LINE      ECODE    ---       #6
      00FEA653H   LINE      ECODE    ---       #14
      00FEA657H   LINE      ECODE    ---       #16
      00FEA65AH   LINE      ECODE    ---       #17
      00FEA667H   LINE      ECODE    ---       #18
      00FEA669H   LINE      ECODE    ---       #21
      00FEA679H   LINE      ECODE    ---       #22
      00FEA679H   LINE      ECODE    ---       #23
      00FEA67EH   LINE      ECODE    ---       #25
      00FEA68EH   LINE      ECODE    ---       #26
      00FEA6A7H   LINE      ECODE    ---       #27
      00FEA6B3H   LINE      ECODE    ---       #28
      00FEA6B7H   LINE      ECODE    ---       #29
      00FEA6B9H   LINE      ECODE    ---       #30
      00FEA6BEH   LINE      ECODE    ---       #32
      00FEA6CEH   LINE      ECODE    ---       #33
      00FEA6E7H   LINE      ECODE    ---       #34
      00FEA6F3H   LINE      ECODE    ---       #35
      00FEA6FFH   LINE      ECODE    ---       #36
      00FEA6FFH   LINE      ECODE    ---       #37
      00FEA70AH   LINE      ECODE    ---       #38
      00FEA712H   LINE      ECODE    ---       #39
      00FEA722H   LINE      ECODE    ---       #40
      00FEA72AH   LINE      ECODE    ---       #41
      00FEA72EH   LINE      ECODE    ---       #42
      ---         BLOCKEND  ---      ---       LVL=0

      00FEA731H   BLOCK     ECODE    ---       LVL=0
      REG=7       REGSYM    ---      ---       pWidget
      R10         REGSYM    ---      BYTE      ucStatus
      00FEA731H   LINE      ECODE    ---       #43
      00FEA735H   LINE      ECODE    ---       #57
      00FEA739H   LINE      ECODE    ---       #59
      00FEA73CH   LINE      ECODE    ---       #60
      00FEA747H   LINE      ECODE    ---       #61
      00FEA749H   LINE      ECODE    ---       #64
      00FEA757H   LINE      ECODE    ---       #65
      00FEA757H   LINE      ECODE    ---       #66
      00FEA75FH   LINE      ECODE    ---       #67
      00FEA76AH   LINE      ECODE    ---       #69
      00FEA77FH   LINE      ECODE    ---       #70
      ---         BLOCKEND  ---      ---       LVL=0

      00FEA780H   BLOCK     ECODE    ---       LVL=0
      REG=0       REGSYM    ---      ---       pWidget
      00FEA780H   LINE      ECODE    ---       #71
      00FEA780H   LINE      ECODE    ---       #73
      00FEA787H   LINE      ECODE    ---       #74
      00FEA78AH   LINE      ECODE    ---       #76
      00FEA78BH   LINE      ECODE    ---       #77
      ---         BLOCKEND  ---      ---       LVL=0

      00FEA78CH   BLOCK     ECODE    ---       LVL=0
      REG=7       REGSYM    ---      ---       pWidget
      00FEA78CH   LINE      ECODE    ---       #78
      00FEA78EH   LINE      ECODE    ---       #92
      ---         BLOCKEND  ---      ---       LVL=0

      ---         MODULE    ---      ---       oled_canvas
L251 LINKER/LOCATER V4.66.93.0                                                        08/24/2022  19:19:43  PAGE 57


      00FE4D9BH   PUBLIC    ECODE    ---       og_canvas_create?
      00FE4E2CH   PUBLIC    ECODE    ---       og_canvas_clear?
      00FE52A7H   PUBLIC    ECODE    ---       og_canvas_draw?
      00FE4EB4H   PUBLIC    ECODE    ---       og_canvas_drawLine?
      00FE518DH   PUBLIC    ECODE    ---       og_canvas_drawRectangle?
      00FE5252H   PUBLIC    ECODE    ---       og_canvas_drawText?
      00FE4E5EH   PUBLIC    ECODE    ---       og_canvas_drawDot?
      000007AAH   PUBLIC    EDATA    BYTE      ?og_canvas_drawText??BYTE

      00FE4D9BH   BLOCK     ECODE    ---       LVL=0
      R14         REGSYM    ---      BYTE      w
      R15         REGSYM    ---      BYTE      h
      000007A7H   SYMBOL    EDATA    WORD      x
      WR12        REGSYM    ---      WORD      y
      00FE4DA7H   BLOCK     ECODE    NEAR LAB  LVL=1
      000007A9H   SYMBOL    EDATA    ---       pWidget
      ---         BLOCKEND  ---      ---       LVL=1
      00FE4D9BH   LINE      ECODE    ---       #4
      00FE4DA7H   LINE      ECODE    ---       #5
      00FE4DA7H   LINE      ECODE    ---       #6
      00FE4DAFH   LINE      ECODE    ---       #14
      00FE4DBAH   LINE      ECODE    ---       #15
      00FE4DC5H   LINE      ECODE    ---       #16
      00FE4DC8H   LINE      ECODE    ---       #17
      00FE4DE6H   LINE      ECODE    ---       #26
      00FE4DF0H   LINE      ECODE    ---       #27
      00FE4DFAH   LINE      ECODE    ---       #28
      00FE4E05H   LINE      ECODE    ---       #29
      00FE4E0DH   LINE      ECODE    ---       #30
      00FE4E1DH   LINE      ECODE    ---       #31
      00FE4E25H   LINE      ECODE    ---       #32
      00FE4E29H   LINE      ECODE    ---       #33
      ---         BLOCKEND  ---      ---       LVL=0

      00FE4E2CH   BLOCK     ECODE    ---       LVL=0
      REG=2       REGSYM    ---      ---       pWidget
      00FE4E30H   BLOCK     ECODE    NEAR LAB  LVL=1
      WR0         REGSYM    ---      WORD      i
      WR2         REGSYM    ---      WORD      temp
      REG=1       REGSYM    ---      ---       ptr
      ---         BLOCKEND  ---      ---       LVL=1
      00FE4E2CH   LINE      ECODE    ---       #34
      00FE4E30H   LINE      ECODE    ---       #35
      00FE4E30H   LINE      ECODE    ---       #37
      00FE4E38H   LINE      ECODE    ---       #50
      00FE4E48H   LINE      ECODE    ---       #51
      00FE4E4CH   LINE      ECODE    ---       #53
      00FE4E55H   LINE      ECODE    ---       #54
      00FE4E5BH   LINE      ECODE    ---       #55
      ---         BLOCKEND  ---      ---       LVL=0

      00FE4E5EH   BLOCK     ECODE    ---       LVL=0
      REG=7       REGSYM    ---      ---       pWidget
      R9          REGSYM    ---      BYTE      x
      R10         REGSYM    ---      BYTE      y
      00FE4E5EH   LINE      ECODE    ---       #57
      00FE4E62H   LINE      ECODE    ---       #71
      00FE4E7CH   LINE      ECODE    ---       #72
      00FE4E7CH   LINE      ECODE    ---       #73
      00FE4EB3H   LINE      ECODE    ---       #74
      ---         BLOCKEND  ---      ---       LVL=0

      00FE4EB4H   BLOCK     ECODE    ---       LVL=0
      REG=6       REGSYM    ---      ---       pWidget
      000007B7H   SYMBOL    EDATA    BYTE      x1
L251 LINKER/LOCATER V4.66.93.0                                                        08/24/2022  19:19:43  PAGE 58


      R13         REGSYM    ---      BYTE      y1
      000007B8H   SYMBOL    EDATA    BYTE      x2
      R12         REGSYM    ---      BYTE      y2
      00FE4EC4H   BLOCK     ECODE    NEAR LAB  LVL=1
      DR28        REGSYM    ---      FLOAT     k
      DR20        REGSYM    ---      FLOAT     b
      ---         BLOCKEND  ---      ---       LVL=1
      00FE4EB4H   LINE      ECODE    ---       #75
      00FE4EC4H   LINE      ECODE    ---       #76
      00FE4EC4H   LINE      ECODE    ---       #91
      00FE4ED1H   LINE      ECODE    ---       #93
      00FE4F09H   LINE      ECODE    ---       #94
      00FE4F1BH   LINE      ECODE    ---       #95
      00FE4F3DH   LINE      ECODE    ---       #97
      00FE4F46H   LINE      ECODE    ---       #99
      00FE4F48H   LINE      ECODE    ---       #101
      00FE4FA4H   LINE      ECODE    ---       #102
      00FE4FADH   LINE      ECODE    ---       #103
      00FE4FB7H   LINE      ECODE    ---       #104
      00FE4FBAH   LINE      ECODE    ---       #107
      00FE4FBCH   LINE      ECODE    ---       #109
      00FE5018H   LINE      ECODE    ---       #110
      00FE5021H   LINE      ECODE    ---       #111
      00FE502BH   LINE      ECODE    ---       #112
      00FE502BH   LINE      ECODE    ---       #113
      00FE502EH   LINE      ECODE    ---       #116
      00FE5035H   LINE      ECODE    ---       #118
      00FE5037H   LINE      ECODE    ---       #120
      00FE5089H   LINE      ECODE    ---       #121
      00FE508BH   LINE      ECODE    ---       #122
      00FE508FH   LINE      ECODE    ---       #123
      00FE5092H   LINE      ECODE    ---       #126
      00FE5094H   LINE      ECODE    ---       #128
      00FE50E6H   LINE      ECODE    ---       #129
      00FE50E8H   LINE      ECODE    ---       #130
      00FE50ECH   LINE      ECODE    ---       #131
      00FE50ECH   LINE      ECODE    ---       #132
      00FE50ECH   LINE      ECODE    ---       #133
      00FE50EFH   LINE      ECODE    ---       #136
      00FE50F6H   LINE      ECODE    ---       #138
      00FE50F8H   LINE      ECODE    ---       #140
      00FE5139H   LINE      ECODE    ---       #141
      00FE513BH   LINE      ECODE    ---       #142
      00FE513FH   LINE      ECODE    ---       #143
      00FE5141H   LINE      ECODE    ---       #146
      00FE5143H   LINE      ECODE    ---       #148
      00FE5184H   LINE      ECODE    ---       #149
      00FE5186H   LINE      ECODE    ---       #150
      00FE518AH   LINE      ECODE    ---       #151
      00FE518AH   LINE      ECODE    ---       #152
      00FE518AH   LINE      ECODE    ---       #153
      ---         BLOCKEND  ---      ---       LVL=0

      00FE518DH   BLOCK     ECODE    ---       LVL=0
      REG=3       REGSYM    ---      ---       pWidget
      R11         REGSYM    ---      BYTE      w
      R10         REGSYM    ---      BYTE      h
      000007B3H   SYMBOL    EDATA    BYTE      x
      000007B4H   SYMBOL    EDATA    BYTE      y
      00FE519BH   BLOCK     ECODE    NEAR LAB  LVL=1
      000007B5H   SYMBOL    EDATA    BYTE      x2
      000007B6H   SYMBOL    EDATA    BYTE      y2
      ---         BLOCKEND  ---      ---       LVL=1
      00FE518DH   LINE      ECODE    ---       #154
      00FE519BH   LINE      ECODE    ---       #155
L251 LINKER/LOCATER V4.66.93.0                                                        08/24/2022  19:19:43  PAGE 59


      00FE519BH   LINE      ECODE    ---       #169
      00FE51C1H   LINE      ECODE    ---       #170
      00FE51C1H   LINE      ECODE    ---       #171
      00FE51E3H   LINE      ECODE    ---       #172
      00FE5201H   LINE      ECODE    ---       #173
      00FE5213H   LINE      ECODE    ---       #174
      00FE5227H   LINE      ECODE    ---       #175
      00FE523BH   LINE      ECODE    ---       #176
      00FE524FH   LINE      ECODE    ---       #177
      ---         BLOCKEND  ---      ---       LVL=0

      00FE5252H   BLOCK     ECODE    ---       LVL=0
      REG=7       REGSYM    ---      ---       pWidget
      REG=3       REGSYM    ---      ---       str
      R10         REGSYM    ---      BYTE      x
      000007B3H   SYMBOL    EDATA    BYTE      y
      00FE525AH   BLOCK     ECODE    NEAR LAB  LVL=1
      000007B4H   SYMBOL    EDATA    ---       offset
      ---         BLOCKEND  ---      ---       LVL=1
      00FE5252H   LINE      ECODE    ---       #178
      00FE525AH   LINE      ECODE    ---       #179
      00FE525AH   LINE      ECODE    ---       #193
      00FE5266H   LINE      ECODE    ---       #194
      00FE5284H   LINE      ECODE    ---       #195
      00FE5286H   LINE      ECODE    ---       #200
      00FE5291H   LINE      ECODE    ---       #202
      00FE529DH   LINE      ECODE    ---       #203
      00FE529FH   LINE      ECODE    ---       #204
      00FE52A4H   LINE      ECODE    ---       #205
      ---         BLOCKEND  ---      ---       LVL=0

      00FE52A7H   BLOCK     ECODE    ---       LVL=0
      REG=7       REGSYM    ---      ---       pWidget
      00FE52A7H   LINE      ECODE    ---       #206
      00FE52A9H   LINE      ECODE    ---       #220
      ---         BLOCKEND  ---      ---       LVL=0

      ---         MODULE    ---      ---       oled_label
      00FE1BA6H   PUBLIC    ECODE    ---       str_cpy?
      00FE1C4DH   PUBLIC    ECODE    ---       og_label_setText?
      00FE1BE5H   PUBLIC    ECODE    ---       og_label_create?
      00FE1EDAH   PUBLIC    ECODE    ---       og_label_clear?
      00FE1D92H   PUBLIC    ECODE    ---       og_label_appendText?
      00FE1F06H   PUBLIC    ECODE    ---       og_label_draw?
      00FE1B8DH   PUBLIC    ECODE    ---       str_len?
      00FE1BC0H   PUBLIC    ECODE    ---       str_cmp?
      00FF0027H   PUBLIC    CODE     ---       sFont
      000007EBH   PUBLIC    EDATA    ---       label_str

      00FE1B8DH   BLOCK     ECODE    ---       LVL=0
      REG=0       REGSYM    ---      ---       str
      WR6         REGSYM    ---      WORD      cnt
      00FE1B8DH   LINE      ECODE    ---       #4
      00FE1B8DH   LINE      ECODE    ---       #5
      00FE1B8DH   LINE      ECODE    ---       #6
      00FE1B91H   LINE      ECODE    ---       #7
      00FE1B97H   LINE      ECODE    ---       #8
      00FE1B9AH   LINE      ECODE    ---       #9
      00FE1B9CH   LINE      ECODE    ---       #11
      00FE1B9EH   LINE      ECODE    ---       #12
      00FE1BA0H   LINE      ECODE    ---       #13
      00FE1BA5H   LINE      ECODE    ---       #14
      00FE1BA5H   LINE      ECODE    ---       #15
      ---         BLOCKEND  ---      ---       LVL=0

L251 LINKER/LOCATER V4.66.93.0                                                        08/24/2022  19:19:43  PAGE 60


      00FE1BA6H   BLOCK     ECODE    ---       LVL=0
      REG=6       REGSYM    ---      ---       str_source
      REG=7       REGSYM    ---      ---       str_target
      00FE1BA6H   LINE      ECODE    ---       #16
      00FE1BAAH   LINE      ECODE    ---       #18
      00FE1BACH   LINE      ECODE    ---       #20
      00FE1BB6H   LINE      ECODE    ---       #21
      00FE1BBBH   LINE      ECODE    ---       #22
      00FE1BBFH   LINE      ECODE    ---       #23
      ---         BLOCKEND  ---      ---       LVL=0

      00FE1BC0H   BLOCK     ECODE    ---       LVL=0
      REG=6       REGSYM    ---      ---       str_source
      REG=7       REGSYM    ---      ---       str_target
      00FE1BC0H   LINE      ECODE    ---       #24
      00FE1BC4H   LINE      ECODE    ---       #26
      00FE1BC6H   LINE      ECODE    ---       #28
      00FE1BD4H   LINE      ECODE    ---       #29
      00FE1BD6H   LINE      ECODE    ---       #30
      00FE1BDBH   LINE      ECODE    ---       #31
      00FE1BE0H   LINE      ECODE    ---       #32
      00FE1BE2H   LINE      ECODE    ---       #33
      00FE1BE4H   LINE      ECODE    ---       #34
      ---         BLOCKEND  ---      ---       LVL=0

      00FE1BE5H   BLOCK     ECODE    ---       LVL=0
      000007A7H   SYMBOL    EDATA    BYTE      font
      WR12        REGSYM    ---      INT       x
      WR14        REGSYM    ---      INT       y
      00FE1BEFH   BLOCK     ECODE    NEAR LAB  LVL=1
      000007A8H   SYMBOL    EDATA    ---       pWidget
      REG=1       REGSYM    ---      ---       pLabel
      ---         BLOCKEND  ---      ---       LVL=1
      00FE1BE5H   LINE      ECODE    ---       #36
      00FE1BEFH   LINE      ECODE    ---       #37
      00FE1BEFH   LINE      ECODE    ---       #38
      00FE1BF7H   LINE      ECODE    ---       #53
      00FE1BFAH   LINE      ECODE    ---       #54
      00FE1C02H   LINE      ECODE    ---       #55
      00FE1C12H   LINE      ECODE    ---       #56
      00FE1C26H   LINE      ECODE    ---       #65
      00FE1C32H   LINE      ECODE    ---       #66
      00FE1C39H   LINE      ECODE    ---       #67
      00FE1C3EH   LINE      ECODE    ---       #68
      00FE1C46H   LINE      ECODE    ---       #69
      00FE1C4AH   LINE      ECODE    ---       #70
      ---         BLOCKEND  ---      ---       LVL=0

      00FE1C4DH   BLOCK     ECODE    ---       LVL=0
      REG=3       REGSYM    ---      ---       pWidget
      000007B6H   SYMBOL    EDATA    ---       str
      00FE1C55H   BLOCK     ECODE    NEAR LAB  LVL=1
      000007BAH   SYMBOL    EDATA    ---       pLabel
      000007BEH   SYMBOL    EDATA    BYTE      line_cnt
      000007BFH   SYMBOL    EDATA    BYTE      line_char_max
      00FE1C7CH   BLOCK     ECODE    NEAR LAB  LVL=2
      000007C0H   SYMBOL    EDATA    ---       ptr
      000007C4H   SYMBOL    EDATA    WORD      str_sum
      000007C6H   SYMBOL    EDATA    BYTE      line_char_cnt
      ---         BLOCKEND  ---      ---       LVL=2
      ---         BLOCKEND  ---      ---       LVL=1
      00FE1C4DH   LINE      ECODE    ---       #71
      00FE1C55H   LINE      ECODE    ---       #72
      00FE1C55H   LINE      ECODE    ---       #73
      00FE1C61H   LINE      ECODE    ---       #74
L251 LINKER/LOCATER V4.66.93.0                                                        08/24/2022  19:19:43  PAGE 61


      00FE1C66H   LINE      ECODE    ---       #75
      00FE1C6AH   LINE      ECODE    ---       #88
      00FE1C7CH   LINE      ECODE    ---       #89
      00FE1C7CH   LINE      ECODE    ---       #91
      00FE1C7CH   LINE      ECODE    ---       #92
      00FE1C84H   LINE      ECODE    ---       #93
      00FE1C8AH   LINE      ECODE    ---       #94
      00FE1C8FH   LINE      ECODE    ---       #95
      00FE1C91H   LINE      ECODE    ---       #97
      00FE1CA0H   LINE      ECODE    ---       #99
      00FE1CA9H   LINE      ECODE    ---       #100
      00FE1CB3H   LINE      ECODE    ---       #101
      00FE1CBBH   LINE      ECODE    ---       #102
      00FE1CBCH   LINE      ECODE    ---       #103
      00FE1CBEH   LINE      ECODE    ---       #106
      00FE1CC7H   LINE      ECODE    ---       #107
      00FE1CC7H   LINE      ECODE    ---       #108
      00FE1CD1H   LINE      ECODE    ---       #109
      00FE1CDBH   LINE      ECODE    ---       #110
      00FE1CE4H   LINE      ECODE    ---       #111
      00FE1CECH   LINE      ECODE    ---       #113
      00FE1CF5H   LINE      ECODE    ---       #114
      00FE1CFFH   LINE      ECODE    ---       #115
      00FE1D03H   LINE      ECODE    ---       #116
      00FE1D03H   LINE      ECODE    ---       #117
      00FE1D19H   LINE      ECODE    ---       #125
      00FE1D21H   LINE      ECODE    ---       #126
      00FE1D2DH   LINE      ECODE    ---       #127
      00FE1D37H   LINE      ECODE    ---       #128
      00FE1D37H   LINE      ECODE    ---       #129
      00FE1D58H   LINE      ECODE    ---       #130
      00FE1D79H   LINE      ECODE    ---       #132
      00FE1D83H   LINE      ECODE    ---       #133
      00FE1D8FH   LINE      ECODE    ---       #135
      ---         BLOCKEND  ---      ---       LVL=0

      00FE1D92H   BLOCK     ECODE    ---       LVL=0
      REG=3       REGSYM    ---      ---       pWidget
      000007A7H   SYMBOL    EDATA    ---       str
      00FE1D9AH   BLOCK     ECODE    NEAR LAB  LVL=1
      000007ABH   SYMBOL    EDATA    ---       pLabel
      REG=1       REGSYM    ---      ---       ptr
      000007AFH   SYMBOL    EDATA    WORD      str_sum1
      000007B1H   SYMBOL    EDATA    WORD      str_sum2
      000007B3H   SYMBOL    EDATA    BYTE      line_cnt
      000007B4H   SYMBOL    EDATA    BYTE      line_char_cnt
      000007B5H   SYMBOL    EDATA    BYTE      line_char_max
      ---         BLOCKEND  ---      ---       LVL=1
      00FE1D92H   LINE      ECODE    ---       #136
      00FE1D9AH   LINE      ECODE    ---       #137
      00FE1D9AH   LINE      ECODE    ---       #138
      00FE1DA6H   LINE      ECODE    ---       #141
      00FE1DABH   LINE      ECODE    ---       #142
      00FE1DAFH   LINE      ECODE    ---       #143
      00FE1DB3H   LINE      ECODE    ---       #156
      00FE1DB9H   LINE      ECODE    ---       #158
      00FE1DC3H   LINE      ECODE    ---       #159
      00FE1DC6H   LINE      ECODE    ---       #160
      00FE1DC6H   LINE      ECODE    ---       #161
      00FE1DD2H   LINE      ECODE    ---       #162
      00FE1DD9H   LINE      ECODE    ---       #163
      00FE1DD9H   LINE      ECODE    ---       #164
      00FE1DE7H   LINE      ECODE    ---       #165
      00FE1DFDH   LINE      ECODE    ---       #173
      00FE1E05H   LINE      ECODE    ---       #174
L251 LINKER/LOCATER V4.66.93.0                                                        08/24/2022  19:19:43  PAGE 62


      00FE1E11H   LINE      ECODE    ---       #175
      00FE1E1FH   LINE      ECODE    ---       #176
      00FE1E25H   LINE      ECODE    ---       #177
      00FE1E27H   LINE      ECODE    ---       #179
      00FE1E32H   LINE      ECODE    ---       #181
      00FE1E3BH   LINE      ECODE    ---       #182
      00FE1E45H   LINE      ECODE    ---       #183
      00FE1E4DH   LINE      ECODE    ---       #184
      00FE1E4EH   LINE      ECODE    ---       #185
      00FE1E50H   LINE      ECODE    ---       #188
      00FE1E59H   LINE      ECODE    ---       #189
      00FE1E59H   LINE      ECODE    ---       #190
      00FE1E5BH   LINE      ECODE    ---       #191
      00FE1E60H   LINE      ECODE    ---       #192
      00FE1E68H   LINE      ECODE    ---       #194
      00FE1E71H   LINE      ECODE    ---       #195
      00FE1E7BH   LINE      ECODE    ---       #196
      00FE1E7FH   LINE      ECODE    ---       #197
      00FE1E7FH   LINE      ECODE    ---       #198
      00FE1EA0H   LINE      ECODE    ---       #199
      00FE1EC1H   LINE      ECODE    ---       #201
      00FE1ECBH   LINE      ECODE    ---       #202
      00FE1ED7H   LINE      ECODE    ---       #204
      ---         BLOCKEND  ---      ---       LVL=0

      00FE1EDAH   BLOCK     ECODE    ---       LVL=0
      REG=3       REGSYM    ---      ---       pWidget
      00FE1EDEH   BLOCK     ECODE    NEAR LAB  LVL=1
      REG=1       REGSYM    ---      ---       pLabel
      REG=1       REGSYM    ---      ---       ptr
      ---         BLOCKEND  ---      ---       LVL=1
      00FE1EDAH   LINE      ECODE    ---       #205
      00FE1EDEH   LINE      ECODE    ---       #206
      00FE1EDEH   LINE      ECODE    ---       #221
      00FE1EEEH   LINE      ECODE    ---       #229
      00FE1EF6H   LINE      ECODE    ---       #230
      00FE1EFEH   LINE      ECODE    ---       #231
      00FE1F03H   LINE      ECODE    ---       #232
      ---         BLOCKEND  ---      ---       LVL=0

      00FE1F06H   BLOCK     ECODE    ---       LVL=0
      REG=3       REGSYM    ---      ---       pWidget
      00FE1F0AH   BLOCK     ECODE    NEAR LAB  LVL=1
      REG=1       REGSYM    ---      ---       pLabel
      00FE1F1BH   BLOCK     ECODE    NEAR LAB  LVL=2
      000007A7H   SYMBOL    EDATA    ---       pStr
      000007ABH   SYMBOL    EDATA    ---       ptr
      000007AFH   SYMBOL    EDATA    INT       y
      000007B1H   SYMBOL    EDATA    WORD      i
      000007B3H   SYMBOL    EDATA    WORD      ptr_size
      00FE1F92H   BLOCK     ECODE    NEAR LAB  LVL=3
      000007B5H   SYMBOL    EDATA    ---       ptr2
      000007B9H   SYMBOL    EDATA    WORD      j
      000007BBH   SYMBOL    EDATA    ---       offset
      ---         BLOCKEND  ---      ---       LVL=3
      00FE209FH   BLOCK     ECODE    NEAR LAB  LVL=3
      000007B5H   SYMBOL    EDATA    ---       ptr2
      000007B9H   SYMBOL    EDATA    WORD      j
      000007BBH   SYMBOL    EDATA    ---       offset
      ---         BLOCKEND  ---      ---       LVL=3
      00FE21B6H   BLOCK     ECODE    NEAR LAB  LVL=3
      000007B5H   SYMBOL    EDATA    ---       ptr2
      000007B9H   SYMBOL    EDATA    WORD      j
      000007BBH   SYMBOL    EDATA    ---       offset
      ---         BLOCKEND  ---      ---       LVL=3
L251 LINKER/LOCATER V4.66.93.0                                                        08/24/2022  19:19:43  PAGE 63


      00FE22D1H   BLOCK     ECODE    NEAR LAB  LVL=3
      000007B5H   SYMBOL    EDATA    ---       ptr2
      000007B9H   SYMBOL    EDATA    WORD      j
      000007BBH   SYMBOL    EDATA    ---       offset
      ---         BLOCKEND  ---      ---       LVL=3
      00FE23ECH   BLOCK     ECODE    NEAR LAB  LVL=3
      000007B5H   SYMBOL    EDATA    ---       ptr2
      000007B9H   SYMBOL    EDATA    WORD      j
      000007BBH   SYMBOL    EDATA    ---       offset
      ---         BLOCKEND  ---      ---       LVL=3
      ---         BLOCKEND  ---      ---       LVL=2
      ---         BLOCKEND  ---      ---       LVL=1
      00FE1F06H   LINE      ECODE    ---       #233
      00FE1F0AH   LINE      ECODE    ---       #234
      00FE1F0AH   LINE      ECODE    ---       #235
      00FE1F12H   LINE      ECODE    ---       #248
      00FE1F1BH   LINE      ECODE    ---       #249
      00FE1F1BH   LINE      ECODE    ---       #251
      00FE1F1BH   LINE      ECODE    ---       #252
      00FE1F23H   LINE      ECODE    ---       #254
      00FE1F29H   LINE      ECODE    ---       #255
      00FE1F2DH   LINE      ECODE    ---       #382
      00FE1F4FH   LINE      ECODE    ---       #384
      00FE1F4FH   LINE      ECODE    ---       #386
      00FE1F57H   LINE      ECODE    ---       #387
      00FE1F63H   LINE      ECODE    ---       #395
      00FE1F63H   LINE      ECODE    ---       #397
      00FE1F72H   LINE      ECODE    ---       #399
      00FE1F92H   LINE      ECODE    ---       #400
      00FE1F92H   LINE      ECODE    ---       #401
      00FE1F9AH   LINE      ECODE    ---       #403
      00FE1FA2H   LINE      ECODE    ---       #404
      00FE1FA6H   LINE      ECODE    ---       #406
      00FE1FB9H   LINE      ECODE    ---       #407
      00FE1FC5H   LINE      ECODE    ---       #408
      00FE1FD9H   LINE      ECODE    ---       #409
      00FE1FFEH   LINE      ECODE    ---       #410
      00FE2002H   LINE      ECODE    ---       #411
      00FE2022H   LINE      ECODE    ---       #412
      00FE2022H   LINE      ECODE    ---       #413
      00FE202EH   LINE      ECODE    ---       #414
      00FE202EH   LINE      ECODE    ---       #415
      00FE2034H   LINE      ECODE    ---       #416
      00FE2040H   LINE      ECODE    ---       #417
      00FE2042H   LINE      ECODE    ---       #419
      00FE204CH   LINE      ECODE    ---       #420
      00FE2056H   LINE      ECODE    ---       #421
      00FE2059H   LINE      ECODE    ---       #422
      00FE205CH   LINE      ECODE    ---       #424
      00FE205CH   LINE      ECODE    ---       #426
      00FE2064H   LINE      ECODE    ---       #427
      00FE2070H   LINE      ECODE    ---       #435
      00FE2070H   LINE      ECODE    ---       #437
      00FE207FH   LINE      ECODE    ---       #439
      00FE209FH   LINE      ECODE    ---       #440
      00FE209FH   LINE      ECODE    ---       #441
      00FE20A7H   LINE      ECODE    ---       #443
      00FE20AFH   LINE      ECODE    ---       #444
      00FE20B7H   LINE      ECODE    ---       #446
      00FE20CAH   LINE      ECODE    ---       #447
      00FE20D6H   LINE      ECODE    ---       #448
      00FE20EAH   LINE      ECODE    ---       #449
      00FE210FH   LINE      ECODE    ---       #450
      00FE2117H   LINE      ECODE    ---       #451
      00FE2137H   LINE      ECODE    ---       #452
L251 LINKER/LOCATER V4.66.93.0                                                        08/24/2022  19:19:43  PAGE 64


      00FE2137H   LINE      ECODE    ---       #453
      00FE2143H   LINE      ECODE    ---       #454
      00FE2143H   LINE      ECODE    ---       #455
      00FE2149H   LINE      ECODE    ---       #456
      00FE2155H   LINE      ECODE    ---       #457
      00FE2157H   LINE      ECODE    ---       #459
      00FE2161H   LINE      ECODE    ---       #460
      00FE216BH   LINE      ECODE    ---       #461
      00FE216EH   LINE      ECODE    ---       #462
      00FE2171H   LINE      ECODE    ---       #464
      00FE2171H   LINE      ECODE    ---       #466
      00FE217BH   LINE      ECODE    ---       #467
      00FE2187H   LINE      ECODE    ---       #475
      00FE2187H   LINE      ECODE    ---       #477
      00FE2196H   LINE      ECODE    ---       #479
      00FE21B6H   LINE      ECODE    ---       #480
      00FE21B6H   LINE      ECODE    ---       #481
      00FE21BEH   LINE      ECODE    ---       #483
      00FE21C6H   LINE      ECODE    ---       #484
      00FE21CEH   LINE      ECODE    ---       #486
      00FE21E5H   LINE      ECODE    ---       #487
      00FE21F1H   LINE      ECODE    ---       #488
      00FE2205H   LINE      ECODE    ---       #489
      00FE222AH   LINE      ECODE    ---       #490
      00FE2232H   LINE      ECODE    ---       #491
      00FE2252H   LINE      ECODE    ---       #492
      00FE2252H   LINE      ECODE    ---       #493
      00FE225EH   LINE      ECODE    ---       #494
      00FE225EH   LINE      ECODE    ---       #495
      00FE2264H   LINE      ECODE    ---       #496
      00FE2270H   LINE      ECODE    ---       #497
      00FE2272H   LINE      ECODE    ---       #499
      00FE227CH   LINE      ECODE    ---       #500
      00FE2286H   LINE      ECODE    ---       #501
      00FE2289H   LINE      ECODE    ---       #502
      00FE228CH   LINE      ECODE    ---       #504
      00FE228CH   LINE      ECODE    ---       #506
      00FE2296H   LINE      ECODE    ---       #507
      00FE22A2H   LINE      ECODE    ---       #515
      00FE22A2H   LINE      ECODE    ---       #517
      00FE22B1H   LINE      ECODE    ---       #519
      00FE22D1H   LINE      ECODE    ---       #520
      00FE22D1H   LINE      ECODE    ---       #521
      00FE22D9H   LINE      ECODE    ---       #523
      00FE22E1H   LINE      ECODE    ---       #524
      00FE22E9H   LINE      ECODE    ---       #526
      00FE2300H   LINE      ECODE    ---       #527
      00FE230CH   LINE      ECODE    ---       #528
      00FE2320H   LINE      ECODE    ---       #529
      00FE2345H   LINE      ECODE    ---       #530
      00FE234DH   LINE      ECODE    ---       #531
      00FE236DH   LINE      ECODE    ---       #532
      00FE236DH   LINE      ECODE    ---       #533
      00FE2379H   LINE      ECODE    ---       #534
      00FE2379H   LINE      ECODE    ---       #535
      00FE237FH   LINE      ECODE    ---       #536
      00FE238BH   LINE      ECODE    ---       #537
      00FE238DH   LINE      ECODE    ---       #539
      00FE2397H   LINE      ECODE    ---       #540
      00FE23A1H   LINE      ECODE    ---       #541
      00FE23A4H   LINE      ECODE    ---       #542
      00FE23A7H   LINE      ECODE    ---       #544
      00FE23A7H   LINE      ECODE    ---       #546
      00FE23B1H   LINE      ECODE    ---       #547
      00FE23BDH   LINE      ECODE    ---       #555
L251 LINKER/LOCATER V4.66.93.0                                                        08/24/2022  19:19:43  PAGE 65


      00FE23BDH   LINE      ECODE    ---       #557
      00FE23CCH   LINE      ECODE    ---       #559
      00FE23ECH   LINE      ECODE    ---       #560
      00FE23ECH   LINE      ECODE    ---       #561
      00FE23F4H   LINE      ECODE    ---       #563
      00FE23FCH   LINE      ECODE    ---       #564
      00FE2404H   LINE      ECODE    ---       #566
      00FE241FH   LINE      ECODE    ---       #567
      00FE242BH   LINE      ECODE    ---       #568
      00FE243FH   LINE      ECODE    ---       #569
      00FE2464H   LINE      ECODE    ---       #570
      00FE246CH   LINE      ECODE    ---       #571
      00FE248CH   LINE      ECODE    ---       #572
      00FE248CH   LINE      ECODE    ---       #573
      00FE2495H   LINE      ECODE    ---       #574
      00FE2495H   LINE      ECODE    ---       #575
      00FE249BH   LINE      ECODE    ---       #576
      00FE24A7H   LINE      ECODE    ---       #577
      00FE24ADH   LINE      ECODE    ---       #578
      00FE24B0H   LINE      ECODE    ---       #581
      00FE24BAH   LINE      ECODE    ---       #582
      00FE24C4H   LINE      ECODE    ---       #583
      00FE24C4H   LINE      ECODE    ---       #584
      00FE24C7H   LINE      ECODE    ---       #585
      00FE24C7H   LINE      ECODE    ---       #587
      00FE24C7H   LINE      ECODE    ---       #589
      00FE24CFH   LINE      ECODE    ---       #590
      00FE24CFH   LINE      ECODE    ---       #591
      00FE24CFH   LINE      ECODE    ---       #592
      ---         BLOCKEND  ---      ---       LVL=0

      ---         MODULE    ---      ---       Buzzer
      00FEA599H   PUBLIC    ECODE    ---       Bee?
      00FEA549H   PUBLIC    ECODE    ---       PWMOff?
      00FEA4C2H   PUBLIC    ECODE    ---       BuzzerInit?
      00FEA58FH   PUBLIC    ECODE    ---       BuzzerOff?
      00FEA56CH   PUBLIC    ECODE    ---       PWMOn?
      00FEA5C0H   PUBLIC    ECODE    ---       TM3_Isr?
      00FEA5ACH   PUBLIC    ECODE    ---       Beebeebee?
      00000AABH   PUBLIC    EDATA    BYTE      bee_mode
      00000AACH   PUBLIC    EDATA    WORD      bee_time
      000000D0H   SFRSYM    DATA     BYTE      PSW
      000000EFH   SFRSYM    DATA     BYTE      AUXINTIF
      000000DDH   SFRSYM    DATA     BYTE      T4T3M
      000000D5H   SFRSYM    DATA     BYTE      T3L
      000000D4H   SFRSYM    DATA     BYTE      T3H
      000000AFH   SFRSYM    DATA     BYTE      IE2
      00000088H   SFRSYM    DATA     BYTE      TCON
      00000098H   SFRSYM    DATA     BYTE      SCON
      000000A0H.0 SFRSYM    DATA     BIT       P20
      000000B8H   SFRSYM    DATA     BYTE      IP
      000000A8H   SFRSYM    DATA     BYTE      IE
      000000BAH   SFRSYM    DATA     BYTE      P_SW2
      000000F8H   SFRSYM    DATA     BYTE      P7
      000000E8H   SFRSYM    DATA     BYTE      P6
      000000C8H   SFRSYM    DATA     BYTE      P5
      000000C0H   SFRSYM    DATA     BYTE      P4
      000000B0H   SFRSYM    DATA     BYTE      P3
      000000A0H   SFRSYM    DATA     BYTE      P2
      00000090H   SFRSYM    DATA     BYTE      P1
      00000080H   SFRSYM    DATA     BYTE      P0

      00FEA4C2H   BLOCK     ECODE    ---       LVL=0
      00FEA4C2H   LINE      ECODE    ---       #7
      00FEA4C2H   LINE      ECODE    ---       #9
L251 LINKER/LOCATER V4.66.93.0                                                        08/24/2022  19:19:43  PAGE 66


      00FEA4C5H   LINE      ECODE    ---       #11
      00FEA4D1H   LINE      ECODE    ---       #12
      00FEA4DCH   LINE      ECODE    ---       #14
      00FEA4E5H   LINE      ECODE    ---       #15
      00FEA4EAH   LINE      ECODE    ---       #17
      00FEA4F2H   LINE      ECODE    ---       #18
      00FEA4F9H   LINE      ECODE    ---       #19
      00FEA502H   LINE      ECODE    ---       #20
      00FEA50BH   LINE      ECODE    ---       #22
      00FEA514H   LINE      ECODE    ---       #23
      00FEA51DH   LINE      ECODE    ---       #26
      00FEA526H   LINE      ECODE    ---       #27
      00FEA52EH   LINE      ECODE    ---       #29
      00FEA537H   LINE      ECODE    ---       #31
      00FEA53AH   LINE      ECODE    ---       #33
      00FEA53DH   LINE      ECODE    ---       #34
      00FEA540H   LINE      ECODE    ---       #35
      00FEA543H   LINE      ECODE    ---       #38
      00FEA546H   LINE      ECODE    ---       #40
      00FEA548H   LINE      ECODE    ---       #41
      ---         BLOCKEND  ---      ---       LVL=0

      00FEA549H   BLOCK     ECODE    ---       LVL=0
      00FEA549H   LINE      ECODE    ---       #42
      00FEA549H   LINE      ECODE    ---       #44
      00FEA54CH   LINE      ECODE    ---       #45
      00FEA55CH   LINE      ECODE    ---       #46
      00FEA568H   LINE      ECODE    ---       #47
      00FEA56BH   LINE      ECODE    ---       #48
      ---         BLOCKEND  ---      ---       LVL=0

      00FEA56CH   BLOCK     ECODE    ---       LVL=0
      00FEA56CH   LINE      ECODE    ---       #49
      00FEA56CH   LINE      ECODE    ---       #51
      00FEA56FH   LINE      ECODE    ---       #52
      00FEA57FH   LINE      ECODE    ---       #53
      00FEA58BH   LINE      ECODE    ---       #54
      00FEA58EH   LINE      ECODE    ---       #55
      ---         BLOCKEND  ---      ---       LVL=0

      00FEA58FH   BLOCK     ECODE    ---       LVL=0
      00FEA58FH   LINE      ECODE    ---       #56
      00FEA58FH   LINE      ECODE    ---       #58
      00FEA592H   LINE      ECODE    ---       #59
      00FEA596H   LINE      ECODE    ---       #60
      00FEA598H   LINE      ECODE    ---       #61
      ---         BLOCKEND  ---      ---       LVL=0

      00FEA599H   BLOCK     ECODE    ---       LVL=0
      00FEA599H   LINE      ECODE    ---       #62
      00FEA599H   LINE      ECODE    ---       #64
      00FEA59EH   LINE      ECODE    ---       #65
      00FEA5A4H   LINE      ECODE    ---       #67
      00FEA5A8H   LINE      ECODE    ---       #68
      00FEA5ABH   LINE      ECODE    ---       #69
      ---         BLOCKEND  ---      ---       LVL=0

      00FEA5ACH   BLOCK     ECODE    ---       LVL=0
      00FEA5ACH   LINE      ECODE    ---       #70
      00FEA5ACH   LINE      ECODE    ---       #72
      00FEA5B2H   LINE      ECODE    ---       #73
      00FEA5B8H   LINE      ECODE    ---       #75
      00FEA5BCH   LINE      ECODE    ---       #76
      00FEA5BFH   LINE      ECODE    ---       #77
      ---         BLOCKEND  ---      ---       LVL=0
L251 LINKER/LOCATER V4.66.93.0                                                        08/24/2022  19:19:43  PAGE 67



      00FEA5C0H   BLOCK     ECODE    ---       LVL=0
      00FEA5C0H   LINE      ECODE    ---       #78
      00FEA5C8H   LINE      ECODE    ---       #80
      00FEA5CBH   LINE      ECODE    ---       #81
      00FEA5D3H   LINE      ECODE    ---       #83
      00FEA5E3H   LINE      ECODE    ---       #85
      00FEA5E9H   LINE      ECODE    ---       #86
      00FEA5EDH   LINE      ECODE    ---       #87
      00FEA5EFH   LINE      ECODE    ---       #89
      00FEA5F4H   LINE      ECODE    ---       #91
      00FEA5FEH   LINE      ECODE    ---       #93
      00FEA60AH   LINE      ECODE    ---       #95
      00FEA616H   LINE      ECODE    ---       #97
      00FEA61AH   LINE      ECODE    ---       #98
      00FEA61CH   LINE      ECODE    ---       #101
      00FEA620H   LINE      ECODE    ---       #102
      00FEA620H   LINE      ECODE    ---       #103
      00FEA620H   LINE      ECODE    ---       #105
      00FEA630H   LINE      ECODE    ---       #107
      00FEA636H   LINE      ECODE    ---       #108
      00FEA636H   LINE      ECODE    ---       #110
      ---         BLOCKEND  ---      ---       LVL=0

      ---         MODULE    ---      ---       Delay
      00FEAFFFH   PUBLIC    ECODE    ---       Delay1ms?
      00FEB020H   PUBLIC    ECODE    ---       Delay1us?

      00FEAFFFH   BLOCK     ECODE    ---       LVL=0
      WR6         REGSYM    ---      WORD      t
      R10         REGSYM    ---      BYTE      i
      R5          REGSYM    ---      BYTE      j
      00FEAFFFH   LINE      ECODE    ---       #3
      00FEAFFFH   LINE      ECODE    ---       #4
      00FEAFFFH   LINE      ECODE    ---       #6
      00FEB001H   LINE      ECODE    ---       #8
      00FEB002H   LINE      ECODE    ---       #9
      00FEB003H   LINE      ECODE    ---       #10
      00FEB006H   LINE      ECODE    ---       #11
      00FEB009H   LINE      ECODE    ---       #12
      00FEB009H   LINE      ECODE    ---       #14
      00FEB010H   LINE      ECODE    ---       #15
      00FEB017H   LINE      ECODE    ---       #16
      00FEB01FH   LINE      ECODE    ---       #17
      ---         BLOCKEND  ---      ---       LVL=0

      00FEB020H   BLOCK     ECODE    ---       LVL=0
      WR6         REGSYM    ---      WORD      t
      R10         REGSYM    ---      BYTE      i
      00FEB020H   LINE      ECODE    ---       #19
      00FEB020H   LINE      ECODE    ---       #20
      00FEB020H   LINE      ECODE    ---       #22
      00FEB022H   LINE      ECODE    ---       #24
      00FEB023H   LINE      ECODE    ---       #25
      00FEB024H   LINE      ECODE    ---       #26
      00FEB027H   LINE      ECODE    ---       #27
      00FEB02EH   LINE      ECODE    ---       #28
      00FEB036H   LINE      ECODE    ---       #29
      ---         BLOCKEND  ---      ---       LVL=0

      ---         MODULE    ---      ---       EEPROM
      00FEAC28H   PUBLIC    ECODE    ---       DisableEEPROM?
      00FEAC7DH   PUBLIC    ECODE    ---       EEPROM_SectorErase?
      00FEAC3BH   PUBLIC    ECODE    ---       EEPROM_read_n?
      00FEACAAH   PUBLIC    ECODE    ---       EEPROM_write_n?
L251 LINKER/LOCATER V4.66.93.0                                                        08/24/2022  19:19:43  PAGE 68


      000000D0H   SFRSYM    DATA     BYTE      PSW
      000000D0H.5 SFRSYM    DATA     BIT       F0
      000000C6H   SFRSYM    DATA     BYTE      IAP_TRIG
      000000C2H   SFRSYM    DATA     BYTE      IAP_DATA
      000000C7H   SFRSYM    DATA     BYTE      IAP_CONTR
      00000088H   SFRSYM    DATA     BYTE      TCON
      00000098H   SFRSYM    DATA     BYTE      SCON
      000000F5H   SFRSYM    DATA     BYTE      IAP_TPS
      000000C4H   SFRSYM    DATA     BYTE      IAP_ADDRL
      000000C3H   SFRSYM    DATA     BYTE      IAP_ADDRH
      000000F6H   SFRSYM    DATA     BYTE      IAP_ADDRE
      000000B8H   SFRSYM    DATA     BYTE      IP
      000000C5H   SFRSYM    DATA     BYTE      IAP_CMD
      000000A8H   SFRSYM    DATA     BYTE      IE
      000000F8H   SFRSYM    DATA     BYTE      P7
      000000A8H.7 SFRSYM    DATA     BIT       EA
      000000E8H   SFRSYM    DATA     BYTE      P6
      000000C8H   SFRSYM    DATA     BYTE      P5
      000000C0H   SFRSYM    DATA     BYTE      P4
      000000B0H   SFRSYM    DATA     BYTE      P3
      000000A0H   SFRSYM    DATA     BYTE      P2
      00000090H   SFRSYM    DATA     BYTE      P1
      00000080H   SFRSYM    DATA     BYTE      P0

      00FEAC28H   BLOCK     ECODE    ---       LVL=0
      00FEAC28H   LINE      ECODE    ---       #12
      00FEAC28H   LINE      ECODE    ---       #14
      00FEAC2BH   LINE      ECODE    ---       #15
      00FEAC2EH   LINE      ECODE    ---       #16
      00FEAC31H   LINE      ECODE    ---       #17
      00FEAC34H   LINE      ECODE    ---       #18
      00FEAC37H   LINE      ECODE    ---       #19
      00FEAC3AH   LINE      ECODE    ---       #20
      ---         BLOCKEND  ---      ---       LVL=0

      00FEAC3BH   BLOCK     ECODE    ---       LVL=0
      WR8         REGSYM    ---      WORD      EE_address
      REG=0       REGSYM    ---      ---       DataAddress
      WR30        REGSYM    ---      WORD      number
      00FEAC3BH   LINE      ECODE    ---       #30
      00FEAC3FH   LINE      ECODE    ---       #32
      00FEAC43H   LINE      ECODE    ---       #33
      00FEAC45H   LINE      ECODE    ---       #34
      00FEAC48H   LINE      ECODE    ---       #35
      00FEAC4BH   LINE      ECODE    ---       #36
      00FEAC4EH   LINE      ECODE    ---       #37
      00FEAC4EH   LINE      ECODE    ---       #39
      00FEAC52H   LINE      ECODE    ---       #40
      00FEAC56H   LINE      ECODE    ---       #41
      00FEAC59H   LINE      ECODE    ---       #42
      00FEAC5FH   LINE      ECODE    ---       #43
      00FEAC60H   LINE      ECODE    ---       #44
      00FEAC61H   LINE      ECODE    ---       #45
      00FEAC62H   LINE      ECODE    ---       #46
      00FEAC63H   LINE      ECODE    ---       #47
      00FEAC68H   LINE      ECODE    ---       #48
      00FEAC6AH   LINE      ECODE    ---       #49
      00FEAC6CH   LINE      ECODE    ---       #50
      00FEAC74H   LINE      ECODE    ---       #52
      00FEAC78H   LINE      ECODE    ---       #53
      00FEAC7CH   LINE      ECODE    ---       #54
      ---         BLOCKEND  ---      ---       LVL=0

      00FEAC7DH   BLOCK     ECODE    ---       LVL=0
      WR6         REGSYM    ---      WORD      EE_address
L251 LINKER/LOCATER V4.66.93.0                                                        08/24/2022  19:19:43  PAGE 69


      00FEAC7DH   LINE      ECODE    ---       #63
      00FEAC7DH   LINE      ECODE    ---       #65
      00FEAC81H   LINE      ECODE    ---       #66
      00FEAC83H   LINE      ECODE    ---       #67
      00FEAC86H   LINE      ECODE    ---       #68
      00FEAC89H   LINE      ECODE    ---       #69
      00FEAC8CH   LINE      ECODE    ---       #70
      00FEAC90H   LINE      ECODE    ---       #71
      00FEAC94H   LINE      ECODE    ---       #72
      00FEAC97H   LINE      ECODE    ---       #73
      00FEAC9DH   LINE      ECODE    ---       #74
      00FEAC9EH   LINE      ECODE    ---       #75
      00FEAC9FH   LINE      ECODE    ---       #76
      00FEACA0H   LINE      ECODE    ---       #77
      00FEACA1H   LINE      ECODE    ---       #78
      00FEACA5H   LINE      ECODE    ---       #79
      00FEACA9H   LINE      ECODE    ---       #80
      ---         BLOCKEND  ---      ---       LVL=0

      00FEACAAH   BLOCK     ECODE    ---       LVL=0
      WR8         REGSYM    ---      WORD      EE_address
      REG=0       REGSYM    ---      ---       DataAddress
      WR30        REGSYM    ---      WORD      number
      00FEACAAH   LINE      ECODE    ---       #91
      00FEACAEH   LINE      ECODE    ---       #93
      00FEACB2H   LINE      ECODE    ---       #94
      00FEACB4H   LINE      ECODE    ---       #95
      00FEACB7H   LINE      ECODE    ---       #96
      00FEACBAH   LINE      ECODE    ---       #97
      00FEACBDH   LINE      ECODE    ---       #98
      00FEACBDH   LINE      ECODE    ---       #100
      00FEACC1H   LINE      ECODE    ---       #101
      00FEACC5H   LINE      ECODE    ---       #102
      00FEACC8H   LINE      ECODE    ---       #103
      00FEACCDH   LINE      ECODE    ---       #104
      00FEACD3H   LINE      ECODE    ---       #105
      00FEACD4H   LINE      ECODE    ---       #106
      00FEACD5H   LINE      ECODE    ---       #107
      00FEACD6H   LINE      ECODE    ---       #108
      00FEACD7H   LINE      ECODE    ---       #109
      00FEACD9H   LINE      ECODE    ---       #110
      00FEACDBH   LINE      ECODE    ---       #111
      00FEACE3H   LINE      ECODE    ---       #112
      00FEACE7H   LINE      ECODE    ---       #113
      00FEACEBH   LINE      ECODE    ---       #114
      ---         BLOCKEND  ---      ---       LVL=0

      ---         MODULE    ---      ---       IIC
      00FE9336H   PUBLIC    ECODE    ---       I2C_RecvACK?
      00FE9360H   PUBLIC    ECODE    ---       I2C_SendNAK?
      00FE93FCH   PUBLIC    ECODE    ---       I2C_Read_MultiBytes?
      00FE92ADH   PUBLIC    ECODE    ---       Wait?
      00FE9293H   PUBLIC    ECODE    ---       IIC_Deinit?
      00FE93B5H   PUBLIC    ECODE    ---       Single_ReadIIC?
      00FE948FH   PUBLIC    ECODE    ---       I2C_Write_MultiBytes?
      00FE937AH   PUBLIC    ECODE    ---       Single_WriteIIC?
      00FE92DFH   PUBLIC    ECODE    ---       I2C_Start?
      00FE9301H   PUBLIC    ECODE    ---       I2C_SendByte?
      00FE92F0H   PUBLIC    ECODE    ---       I2C_Stop?
      00FE9319H   PUBLIC    ECODE    ---       I2C_RecvByte?
      00FE9277H   PUBLIC    ECODE    ---       IIC_Init?
      00FE9347H   PUBLIC    ECODE    ---       I2C_SendACK?
      00000010H   PUBLIC    DATA     WORD      timeout
      000000D0H   SFRSYM    DATA     BYTE      PSW
      00000088H   SFRSYM    DATA     BYTE      TCON
L251 LINKER/LOCATER V4.66.93.0                                                        08/24/2022  19:19:43  PAGE 70


      00000098H   SFRSYM    DATA     BYTE      SCON
      000000B8H   SFRSYM    DATA     BYTE      IP
      000000A8H   SFRSYM    DATA     BYTE      IE
      000000BAH   SFRSYM    DATA     BYTE      P_SW2
      000000F8H   SFRSYM    DATA     BYTE      P7
      000000E8H   SFRSYM    DATA     BYTE      P6
      000000C8H   SFRSYM    DATA     BYTE      P5
      000000C0H   SFRSYM    DATA     BYTE      P4
      000000B0H   SFRSYM    DATA     BYTE      P3
      000000A0H   SFRSYM    DATA     BYTE      P2
      00000090H   SFRSYM    DATA     BYTE      P1
      00000080H   SFRSYM    DATA     BYTE      P0

      00FE9277H   BLOCK     ECODE    ---       LVL=0
      00FE9277H   LINE      ECODE    ---       #7
      00FE9277H   LINE      ECODE    ---       #9
      00FE927AH   LINE      ECODE    ---       #10
      00FE9287H   LINE      ECODE    ---       #11
      00FE928FH   LINE      ECODE    ---       #12
      00FE9292H   LINE      ECODE    ---       #13
      ---         BLOCKEND  ---      ---       LVL=0

      00FE9293H   BLOCK     ECODE    ---       LVL=0
      00FE9293H   LINE      ECODE    ---       #14
      00FE9293H   LINE      ECODE    ---       #16
      00FE9296H   LINE      ECODE    ---       #17
      00FE92A2H   LINE      ECODE    ---       #18
      00FE92A9H   LINE      ECODE    ---       #19
      00FE92ACH   LINE      ECODE    ---       #20
      ---         BLOCKEND  ---      ---       LVL=0

      00FE92ADH   BLOCK     ECODE    ---       LVL=0
      00FE92ADH   LINE      ECODE    ---       #21
      00FE92ADH   LINE      ECODE    ---       #23
      00FE92B4H   LINE      ECODE    ---       #24
      00FE92B6H   LINE      ECODE    ---       #26
      00FE92C0H   LINE      ECODE    ---       #27
      00FE92C0H   LINE      ECODE    ---       #28
      00FE92CEH   LINE      ECODE    ---       #29
      00FE92DEH   LINE      ECODE    ---       #30
      ---         BLOCKEND  ---      ---       LVL=0

      00FE92DFH   BLOCK     ECODE    ---       LVL=0
      00FE92DFH   LINE      ECODE    ---       #31
      00FE92DFH   LINE      ECODE    ---       #33
      00FE92ECH   LINE      ECODE    ---       #34
      ---         BLOCKEND  ---      ---       LVL=0

      00FE92F0H   BLOCK     ECODE    ---       LVL=0
      00FE92F0H   LINE      ECODE    ---       #36
      00FE92F0H   LINE      ECODE    ---       #38
      00FE92FDH   LINE      ECODE    ---       #39
      ---         BLOCKEND  ---      ---       LVL=0

      00FE9301H   BLOCK     ECODE    ---       LVL=0
      R11         REGSYM    ---      BYTE      dat
      00FE9301H   LINE      ECODE    ---       #41
      00FE9301H   LINE      ECODE    ---       #43
      00FE930CH   LINE      ECODE    ---       #44
      00FE9315H   LINE      ECODE    ---       #45
      ---         BLOCKEND  ---      ---       LVL=0

      00FE9319H   BLOCK     ECODE    ---       LVL=0
      00FE9319H   LINE      ECODE    ---       #47
      00FE9319H   LINE      ECODE    ---       #49
L251 LINKER/LOCATER V4.66.93.0                                                        08/24/2022  19:19:43  PAGE 71


      00FE9326H   LINE      ECODE    ---       #50
      00FE932AH   LINE      ECODE    ---       #51
      00FE9335H   LINE      ECODE    ---       #52
      ---         BLOCKEND  ---      ---       LVL=0

      00FE9336H   BLOCK     ECODE    ---       LVL=0
      00FE9336H   LINE      ECODE    ---       #53
      00FE9336H   LINE      ECODE    ---       #55
      00FE9343H   LINE      ECODE    ---       #56
      ---         BLOCKEND  ---      ---       LVL=0

      00FE9347H   BLOCK     ECODE    ---       LVL=0
      00FE9347H   LINE      ECODE    ---       #58
      00FE9347H   LINE      ECODE    ---       #60
      00FE9353H   LINE      ECODE    ---       #61
      00FE935CH   LINE      ECODE    ---       #62
      ---         BLOCKEND  ---      ---       LVL=0

      00FE9360H   BLOCK     ECODE    ---       LVL=0
      00FE9360H   LINE      ECODE    ---       #64
      00FE9360H   LINE      ECODE    ---       #66
      00FE936DH   LINE      ECODE    ---       #67
      00FE9376H   LINE      ECODE    ---       #68
      ---         BLOCKEND  ---      ---       LVL=0

      00FE937AH   BLOCK     ECODE    ---       LVL=0
      R13         REGSYM    ---      BYTE      SlaveAddress
      R14         REGSYM    ---      BYTE      REG_Address
      R15         REGSYM    ---      BYTE      REG_data
      00FE937AH   LINE      ECODE    ---       #73
      00FE9384H   LINE      ECODE    ---       #75
      00FE9387H   LINE      ECODE    ---       #76
      00FE938BH   LINE      ECODE    ---       #77
      00FE9391H   LINE      ECODE    ---       #78
      00FE9395H   LINE      ECODE    ---       #79
      00FE939BH   LINE      ECODE    ---       #80
      00FE939FH   LINE      ECODE    ---       #81
      00FE93A5H   LINE      ECODE    ---       #82
      00FE93A9H   LINE      ECODE    ---       #83
      00FE93ADH   LINE      ECODE    ---       #84
      00FE93B0H   LINE      ECODE    ---       #85
      ---         BLOCKEND  ---      ---       LVL=0

      00FE93B5H   BLOCK     ECODE    ---       LVL=0
      R15         REGSYM    ---      BYTE      SlaveAddress
      R14         REGSYM    ---      BYTE      REG_Address
      00FE93BBH   BLOCK     ECODE    NEAR LAB  LVL=1
      R15         REGSYM    ---      BYTE      REG_data
      ---         BLOCKEND  ---      ---       LVL=1
      00FE93B5H   LINE      ECODE    ---       #89
      00FE93BBH   LINE      ECODE    ---       #90
      00FE93BBH   LINE      ECODE    ---       #92
      00FE93BEH   LINE      ECODE    ---       #93
      00FE93C2H   LINE      ECODE    ---       #94
      00FE93C8H   LINE      ECODE    ---       #95
      00FE93CCH   LINE      ECODE    ---       #96
      00FE93D2H   LINE      ECODE    ---       #97
      00FE93D6H   LINE      ECODE    ---       #98
      00FE93DAH   LINE      ECODE    ---       #99
      00FE93E2H   LINE      ECODE    ---       #100
      00FE93E6H   LINE      ECODE    ---       #101
      00FE93ECH   LINE      ECODE    ---       #102
      00FE93F0H   LINE      ECODE    ---       #103
      00FE93F4H   LINE      ECODE    ---       #104
      00FE93F7H   LINE      ECODE    ---       #105
L251 LINKER/LOCATER V4.66.93.0                                                        08/24/2022  19:19:43  PAGE 72


      00FE93F9H   LINE      ECODE    ---       #106
      ---         BLOCKEND  ---      ---       LVL=0

      00FE93FCH   BLOCK     ECODE    ---       LVL=0
      000007BCH   SYMBOL    EDATA    BYTE      DeviceAddr
      000007BDH   SYMBOL    EDATA    BYTE      address
      000007BEH   SYMBOL    EDATA    BYTE      BytesNum
      REG=3       REGSYM    ---      ---       buf
      00FE940CH   BLOCK     ECODE    NEAR LAB  LVL=1
      000007BFH   SYMBOL    EDATA    BYTE      i
      ---         BLOCKEND  ---      ---       LVL=1
      00FE93FCH   LINE      ECODE    ---       #107
      00FE940CH   LINE      ECODE    ---       #108
      00FE940CH   LINE      ECODE    ---       #110
      00FE940FH   LINE      ECODE    ---       #111
      00FE9413H   LINE      ECODE    ---       #112
      00FE941BH   LINE      ECODE    ---       #113
      00FE941FH   LINE      ECODE    ---       #114
      00FE9427H   LINE      ECODE    ---       #115
      00FE942BH   LINE      ECODE    ---       #116
      00FE942FH   LINE      ECODE    ---       #117
      00FE9439H   LINE      ECODE    ---       #118
      00FE943DH   LINE      ECODE    ---       #119
      00FE9440H   LINE      ECODE    ---       #121
      00FE9451H   LINE      ECODE    ---       #122
      00FE9455H   LINE      ECODE    ---       #123
      00FE9470H   LINE      ECODE    ---       #124
      00FE9481H   LINE      ECODE    ---       #125
      00FE9485H   LINE      ECODE    ---       #126
      00FE9489H   LINE      ECODE    ---       #127
      00FE948CH   LINE      ECODE    ---       #128
      ---         BLOCKEND  ---      ---       LVL=0

      00FE948FH   BLOCK     ECODE    ---       LVL=0
      000007B2H   SYMBOL    EDATA    BYTE      DeviceAddr
      000007B3H   SYMBOL    EDATA    BYTE      address
      000007B4H   SYMBOL    EDATA    BYTE      BytesNum
      REG=3       REGSYM    ---      ---       buf
      00FE949FH   BLOCK     ECODE    NEAR LAB  LVL=1
      000007B5H   SYMBOL    EDATA    BYTE      i
      ---         BLOCKEND  ---      ---       LVL=1
      00FE948FH   LINE      ECODE    ---       #129
      00FE949FH   LINE      ECODE    ---       #130
      00FE949FH   LINE      ECODE    ---       #132
      00FE94A2H   LINE      ECODE    ---       #133
      00FE94A6H   LINE      ECODE    ---       #134
      00FE94AEH   LINE      ECODE    ---       #135
      00FE94B2H   LINE      ECODE    ---       #136
      00FE94BAH   LINE      ECODE    ---       #137
      00FE94BEH   LINE      ECODE    ---       #138
      00FE94C1H   LINE      ECODE    ---       #140
      00FE94D2H   LINE      ECODE    ---       #141
      00FE94D6H   LINE      ECODE    ---       #142
      00FE94E9H   LINE      ECODE    ---       #143
      00FE94EDH   LINE      ECODE    ---       #144
      00FE94F0H   LINE      ECODE    ---       #145
      ---         BLOCKEND  ---      ---       LVL=0

      ---         MODULE    ---      ---       SPI
      00FEAEAAH   PUBLIC    ECODE    ---       SPI_Deinit?
      00FEAEBAH   PUBLIC    ECODE    ---       SPI_ReadByte?
      00FEAE9BH   PUBLIC    ECODE    ---       SPI_Init?
      00FEAEE8H   PUBLIC    ECODE    ---       SPI_ReadMultiBytes?
      00FEAEAEH   PUBLIC    ECODE    ---       SPI_WriteByte?
      00FEAEC8H   PUBLIC    ECODE    ---       SPI_WriteMultiBytes?
L251 LINKER/LOCATER V4.66.93.0                                                        08/24/2022  19:19:43  PAGE 73


      000000CFH   SFRSYM    DATA     BYTE      SPDAT
      000000D0H   SFRSYM    DATA     BYTE      PSW
      000000CDH   SFRSYM    DATA     BYTE      SPSTAT
      00000088H   SFRSYM    DATA     BYTE      TCON
      00000098H   SFRSYM    DATA     BYTE      SCON
      000000B8H   SFRSYM    DATA     BYTE      IP
      000000A8H   SFRSYM    DATA     BYTE      IE
      000000A2H   SFRSYM    DATA     BYTE      P_SW1
      000000CEH   SFRSYM    DATA     BYTE      SPCTL
      000000F8H   SFRSYM    DATA     BYTE      P7
      000000E8H   SFRSYM    DATA     BYTE      P6
      000000C8H   SFRSYM    DATA     BYTE      P5
      000000C0H   SFRSYM    DATA     BYTE      P4
      000000B0H   SFRSYM    DATA     BYTE      P3
      000000A0H   SFRSYM    DATA     BYTE      P2
      00000090H   SFRSYM    DATA     BYTE      P1
      00000080H   SFRSYM    DATA     BYTE      P0

      00FEAE9BH   BLOCK     ECODE    ---       LVL=0
      00FEAE9BH   LINE      ECODE    ---       #4
      00FEAE9BH   LINE      ECODE    ---       #12
      00FEAE9EH   LINE      ECODE    ---       #13
      00FEAEA6H   LINE      ECODE    ---       #14
      00FEAEA9H   LINE      ECODE    ---       #15
      ---         BLOCKEND  ---      ---       LVL=0

      00FEAEAAH   BLOCK     ECODE    ---       LVL=0
      00FEAEAAH   LINE      ECODE    ---       #16
      00FEAEAAH   LINE      ECODE    ---       #18
      00FEAEADH   LINE      ECODE    ---       #19
      ---         BLOCKEND  ---      ---       LVL=0

      00FEAEAEH   BLOCK     ECODE    ---       LVL=0
      R11         REGSYM    ---      BYTE      out
      00FEAEAEH   LINE      ECODE    ---       #20
      00FEAEAEH   LINE      ECODE    ---       #22
      00FEAEB1H   LINE      ECODE    ---       #23
      00FEAEB6H   LINE      ECODE    ---       #24
      00FEAEB9H   LINE      ECODE    ---       #25
      ---         BLOCKEND  ---      ---       LVL=0

      00FEAEBAH   BLOCK     ECODE    ---       LVL=0
      00FEAEBAH   LINE      ECODE    ---       #26
      00FEAEBAH   LINE      ECODE    ---       #28
      00FEAEBDH   LINE      ECODE    ---       #29
      00FEAEC2H   LINE      ECODE    ---       #30
      00FEAEC5H   LINE      ECODE    ---       #31
      00FEAEC7H   LINE      ECODE    ---       #32
      ---         BLOCKEND  ---      ---       LVL=0

      00FEAEC8H   BLOCK     ECODE    ---       LVL=0
      REG=7       REGSYM    ---      ---       tx_ptr
      WR8         REGSYM    ---      WORD      n
      00FEAECCH   BLOCK     ECODE    NEAR LAB  LVL=1
      WR6         REGSYM    ---      WORD      i
      ---         BLOCKEND  ---      ---       LVL=1
      00FEAEC8H   LINE      ECODE    ---       #33
      00FEAECCH   LINE      ECODE    ---       #34
      00FEAECCH   LINE      ECODE    ---       #36
      00FEAED0H   LINE      ECODE    ---       #38
      00FEAED9H   LINE      ECODE    ---       #39
      00FEAEDEH   LINE      ECODE    ---       #40
      00FEAEE1H   LINE      ECODE    ---       #41
      00FEAEE7H   LINE      ECODE    ---       #42
      ---         BLOCKEND  ---      ---       LVL=0
L251 LINKER/LOCATER V4.66.93.0                                                        08/24/2022  19:19:43  PAGE 74



      00FEAEE8H   BLOCK     ECODE    ---       LVL=0
      REG=7       REGSYM    ---      ---       rx_ptr
      WR8         REGSYM    ---      WORD      n
      00FEAEECH   BLOCK     ECODE    NEAR LAB  LVL=1
      WR6         REGSYM    ---      WORD      i
      ---         BLOCKEND  ---      ---       LVL=1
      00FEAEE8H   LINE      ECODE    ---       #43
      00FEAEECH   LINE      ECODE    ---       #44
      00FEAEECH   LINE      ECODE    ---       #46
      00FEAEF0H   LINE      ECODE    ---       #48
      00FEAEF3H   LINE      ECODE    ---       #49
      00FEAEF8H   LINE      ECODE    ---       #50
      00FEAEFBH   LINE      ECODE    ---       #51
      00FEAF04H   LINE      ECODE    ---       #52
      00FEAF0AH   LINE      ECODE    ---       #53
      ---         BLOCKEND  ---      ---       LVL=0

      ---         MODULE    ---      ---       System
      00FEA29CH   PUBLIC    ECODE    ---       SystemSleep?
      00FEA252H   PUBLIC    ECODE    ---       ADC_Deinit?
      00FEA221H   PUBLIC    ECODE    ---       MCUSoftReset?
      00FEA234H   PUBLIC    ECODE    ---       FeedWatchDog?
      00FEA281H   PUBLIC    ECODE    ---       GetBatVoltage?
      00FEA2EAH   PUBLIC    ECODE    ---       SystemWake?
      00FEA2F8H   PUBLIC    ECODE    ---       SystemInit?
      00FEA1C9H   PUBLIC    ECODE    ---       UartInit?
      00FEA2B8H   PUBLIC    ECODE    ---       SystemPowerDown?
      00FEA238H   PUBLIC    ECODE    ---       ADC_Init?
      00FEA212H   PUBLIC    ECODE    ---       IntInit?
      00FEA16DH   PUBLIC    ECODE    ---       GPIOInit?
      00FEA204H   PUBLIC    ECODE    ---       Timer0Init?
      00FEA1F1H   PUBLIC    ECODE    ---       Timer1Init?
      00FEA230H   PUBLIC    ECODE    ---       EnableWatchDog?
      00FEA1DEH   PUBLIC    ECODE    ---       Uart4Init?
      00FEA256H   PUBLIC    ECODE    ---       Get_ADC12bitResult?
      00000AAEH   PUBLIC    EDATA    BYTE      Cont
      00000AAFH   PUBLIC    EDATA    BYTE      Trg
      00000AB0H   PUBLIC    EDATA    BYTE      key_mask
      00000094H   SFRSYM    DATA     BYTE      P0M0
      000000D0H   SFRSYM    DATA     BYTE      PSW
      000000FDH   SFRSYM    DATA     BYTE      S4CON
      000000BEH   SFRSYM    DATA     BYTE      ADC_RESL
      000000DDH   SFRSYM    DATA     BYTE      T4T3M
      000000C1H   SFRSYM    DATA     BYTE      WDT_CONTR
      00000088H.6 SFRSYM    DATA     BIT       TR1
      00000088H.4 SFRSYM    DATA     BIT       TR0
      000000D3H   SFRSYM    DATA     BYTE      T4L
      000000E9H   SFRSYM    DATA     BYTE      WTST
      000000D7H   SFRSYM    DATA     BYTE      T2L
      0000008BH   SFRSYM    DATA     BYTE      TL1
      0000008AH   SFRSYM    DATA     BYTE      TL0
      000000D2H   SFRSYM    DATA     BYTE      T4H
      00000088H.2 SFRSYM    DATA     BIT       IT1
      000000A8H.2 SFRSYM    DATA     BIT       EX1
      000000D6H   SFRSYM    DATA     BYTE      T2H
      00000088H.0 SFRSYM    DATA     BIT       IT0
      0000008DH   SFRSYM    DATA     BYTE      TH1
      000000A8H.0 SFRSYM    DATA     BIT       EX0
      0000008CH   SFRSYM    DATA     BYTE      TH0
      00000088H.7 SFRSYM    DATA     BIT       TF1
      000000A8H.3 SFRSYM    DATA     BIT       ET1
      000000A8H.1 SFRSYM    DATA     BIT       ET0
      000000C7H   SFRSYM    DATA     BYTE      IAP_CONTR
      0000008EH   SFRSYM    DATA     BYTE      AUXR
L251 LINKER/LOCATER V4.66.93.0                                                        08/24/2022  19:19:43  PAGE 75


      000000B0H.7 SFRSYM    DATA     BIT       P37
      000000C0H.5 SFRSYM    DATA     BIT       P45
      00000090H.7 SFRSYM    DATA     BIT       P17
      00000080H.7 SFRSYM    DATA     BIT       P07
      000000C0H.3 SFRSYM    DATA     BIT       P43
      00000080H.6 SFRSYM    DATA     BIT       P06
      00000090H.5 SFRSYM    DATA     BIT       P15
      00000088H   SFRSYM    DATA     BYTE      TCON
      00000089H   SFRSYM    DATA     BYTE      TMOD
      00000090H.4 SFRSYM    DATA     BIT       P14
      00000090H.3 SFRSYM    DATA     BIT       P13
      00000098H   SFRSYM    DATA     BYTE      SCON
      000000A0H.0 SFRSYM    DATA     BIT       P20
      00000087H   SFRSYM    DATA     BYTE      PCON
      000000BCH   SFRSYM    DATA     BYTE      ADC_CONTR
      00000080H.0 SFRSYM    DATA     BIT       P00
      00000098H.1 SFRSYM    DATA     BIT       TI
      000000DEH   SFRSYM    DATA     BYTE      ADCCFG
      000000B8H   SFRSYM    DATA     BYTE      IP
      0000008FH   SFRSYM    DATA     BYTE      INTCLKO
      000000BDH   SFRSYM    DATA     BYTE      ADC_RES
      000000A8H   SFRSYM    DATA     BYTE      IE
      000000BAH   SFRSYM    DATA     BYTE      P_SW2
      000000F8H   SFRSYM    DATA     BYTE      P7
      000000A8H.7 SFRSYM    DATA     BIT       EA
      000000E8H   SFRSYM    DATA     BYTE      P6
      000000C8H   SFRSYM    DATA     BYTE      P5
      000000C0H   SFRSYM    DATA     BYTE      P4
      000000C9H   SFRSYM    DATA     BYTE      P5M1
      000000B0H   SFRSYM    DATA     BYTE      P3
      000000B3H   SFRSYM    DATA     BYTE      P4M1
      000000CAH   SFRSYM    DATA     BYTE      P5M0
      000000A0H   SFRSYM    DATA     BYTE      P2
      000000B1H   SFRSYM    DATA     BYTE      P3M1
      000000B4H   SFRSYM    DATA     BYTE      P4M0
      00000090H   SFRSYM    DATA     BYTE      P1
      00000095H   SFRSYM    DATA     BYTE      P2M1
      000000B2H   SFRSYM    DATA     BYTE      P3M0
      00000080H   SFRSYM    DATA     BYTE      P0
      00000091H   SFRSYM    DATA     BYTE      P1M1
      00000096H   SFRSYM    DATA     BYTE      P2M0
      00000092H   SFRSYM    DATA     BYTE      P1M0
      00000093H   SFRSYM    DATA     BYTE      P0M1

      00FEA16DH   BLOCK     ECODE    ---       LVL=0
      00FEA16DH   LINE      ECODE    ---       #5
      00FEA16DH   LINE      ECODE    ---       #9
      00FEA170H   LINE      ECODE    ---       #10
      00FEA173H   LINE      ECODE    ---       #11
      00FEA176H   LINE      ECODE    ---       #14
      00FEA179H   LINE      ECODE    ---       #15
      00FEA17CH   LINE      ECODE    ---       #16
      00FEA17FH   LINE      ECODE    ---       #17
      00FEA18CH   LINE      ECODE    ---       #18
      00FEA18FH   LINE      ECODE    ---       #19
      00FEA192H   LINE      ECODE    ---       #22
      00FEA195H   LINE      ECODE    ---       #23
      00FEA198H   LINE      ECODE    ---       #24
      00FEA19BH   LINE      ECODE    ---       #27
      00FEA19EH   LINE      ECODE    ---       #28
      00FEA1A1H   LINE      ECODE    ---       #29
      00FEA1A4H   LINE      ECODE    ---       #32
      00FEA1A7H   LINE      ECODE    ---       #33
      00FEA1AAH   LINE      ECODE    ---       #34
      00FEA1ADH   LINE      ECODE    ---       #36
L251 LINKER/LOCATER V4.66.93.0                                                        08/24/2022  19:19:43  PAGE 76


      00FEA1B0H   LINE      ECODE    ---       #37
      00FEA1B3H   LINE      ECODE    ---       #38
      00FEA1B6H   LINE      ECODE    ---       #41
      00FEA1B8H   LINE      ECODE    ---       #42
      00FEA1BAH   LINE      ECODE    ---       #43
      00FEA1BCH   LINE      ECODE    ---       #44
      00FEA1BEH   LINE      ECODE    ---       #45
      00FEA1C0H   LINE      ECODE    ---       #46
      00FEA1C2H   LINE      ECODE    ---       #47
      00FEA1C4H   LINE      ECODE    ---       #48
      00FEA1C6H   LINE      ECODE    ---       #49
      00FEA1C8H   LINE      ECODE    ---       #50
      ---         BLOCKEND  ---      ---       LVL=0

      00FEA1C9H   BLOCK     ECODE    ---       LVL=0
      00FEA1C9H   LINE      ECODE    ---       #51
      00FEA1C9H   LINE      ECODE    ---       #53
      00FEA1CCH   LINE      ECODE    ---       #54
      00FEA1CFH   LINE      ECODE    ---       #55
      00FEA1D2H   LINE      ECODE    ---       #56
      00FEA1D5H   LINE      ECODE    ---       #57
      00FEA1D8H   LINE      ECODE    ---       #58
      00FEA1DBH   LINE      ECODE    ---       #59
      00FEA1DDH   LINE      ECODE    ---       #60
      ---         BLOCKEND  ---      ---       LVL=0

      00FEA1DEH   BLOCK     ECODE    ---       LVL=0
      00FEA1DEH   LINE      ECODE    ---       #61
      00FEA1DEH   LINE      ECODE    ---       #64
      00FEA1E1H   LINE      ECODE    ---       #65
      00FEA1E4H   LINE      ECODE    ---       #66
      00FEA1E7H   LINE      ECODE    ---       #67
      00FEA1EAH   LINE      ECODE    ---       #68
      00FEA1EDH   LINE      ECODE    ---       #69
      00FEA1F0H   LINE      ECODE    ---       #70
      ---         BLOCKEND  ---      ---       LVL=0

      00FEA1F1H   BLOCK     ECODE    ---       LVL=0
      00FEA1F1H   LINE      ECODE    ---       #71
      00FEA1F1H   LINE      ECODE    ---       #73
      00FEA1F4H   LINE      ECODE    ---       #74
      00FEA1F7H   LINE      ECODE    ---       #75
      00FEA1FAH   LINE      ECODE    ---       #76
      00FEA1FDH   LINE      ECODE    ---       #77
      00FEA1FFH   LINE      ECODE    ---       #78
      00FEA201H   LINE      ECODE    ---       #79
      00FEA203H   LINE      ECODE    ---       #80
      ---         BLOCKEND  ---      ---       LVL=0

      00FEA204H   BLOCK     ECODE    ---       LVL=0
      00FEA204H   LINE      ECODE    ---       #81
      00FEA204H   LINE      ECODE    ---       #83
      00FEA207H   LINE      ECODE    ---       #84
      00FEA20AH   LINE      ECODE    ---       #85
      00FEA20DH   LINE      ECODE    ---       #86
      00FEA20FH   LINE      ECODE    ---       #87
      00FEA211H   LINE      ECODE    ---       #88
      ---         BLOCKEND  ---      ---       LVL=0

      00FEA212H   BLOCK     ECODE    ---       LVL=0
      00FEA212H   LINE      ECODE    ---       #89
      00FEA212H   LINE      ECODE    ---       #92
      00FEA214H   LINE      ECODE    ---       #93
      00FEA216H   LINE      ECODE    ---       #94
      00FEA218H   LINE      ECODE    ---       #95
L251 LINKER/LOCATER V4.66.93.0                                                        08/24/2022  19:19:43  PAGE 77


      00FEA21AH   LINE      ECODE    ---       #96
      00FEA21DH   LINE      ECODE    ---       #97
      00FEA220H   LINE      ECODE    ---       #99
      ---         BLOCKEND  ---      ---       LVL=0

      00FEA221H   BLOCK     ECODE    ---       LVL=0
      00FEA221H   LINE      ECODE    ---       #106
      00FEA221H   LINE      ECODE    ---       #108
      00FEA224H   LINE      ECODE    ---       #109
      00FEA22CH   LINE      ECODE    ---       #110
      00FEA22FH   LINE      ECODE    ---       #111
      ---         BLOCKEND  ---      ---       LVL=0

      00FEA230H   BLOCK     ECODE    ---       LVL=0
      00FEA230H   LINE      ECODE    ---       #112
      00FEA230H   LINE      ECODE    ---       #114
      00FEA233H   LINE      ECODE    ---       #115
      ---         BLOCKEND  ---      ---       LVL=0

      00FEA234H   BLOCK     ECODE    ---       LVL=0
      00FEA234H   LINE      ECODE    ---       #116
      00FEA234H   LINE      ECODE    ---       #118
      00FEA237H   LINE      ECODE    ---       #119
      ---         BLOCKEND  ---      ---       LVL=0

      00FEA238H   BLOCK     ECODE    ---       LVL=0
      00FEA238H   LINE      ECODE    ---       #120
      00FEA238H   LINE      ECODE    ---       #122
      00FEA23BH   LINE      ECODE    ---       #123
      00FEA248H   LINE      ECODE    ---       #124
      00FEA24BH   LINE      ECODE    ---       #125
      00FEA24EH   LINE      ECODE    ---       #127
      00FEA251H   LINE      ECODE    ---       #128
      ---         BLOCKEND  ---      ---       LVL=0

      00FEA252H   BLOCK     ECODE    ---       LVL=0
      00FEA252H   LINE      ECODE    ---       #129
      00FEA252H   LINE      ECODE    ---       #131
      00FEA255H   LINE      ECODE    ---       #132
      ---         BLOCKEND  ---      ---       LVL=0

      00FEA256H   BLOCK     ECODE    ---       LVL=0
      R10         REGSYM    ---      BYTE      channel
      00FEA256H   LINE      ECODE    ---       #133
      00FEA258H   LINE      ECODE    ---       #135
      00FEA25BH   LINE      ECODE    ---       #136
      00FEA25EH   LINE      ECODE    ---       #138
      00FEA268H   LINE      ECODE    ---       #139
      00FEA269H   LINE      ECODE    ---       #140
      00FEA26AH   LINE      ECODE    ---       #141
      00FEA26BH   LINE      ECODE    ---       #142
      00FEA26CH   LINE      ECODE    ---       #144
      00FEA271H   LINE      ECODE    ---       #145
      00FEA274H   LINE      ECODE    ---       #147
      00FEA280H   LINE      ECODE    ---       #148
      ---         BLOCKEND  ---      ---       LVL=0

      00FEA281H   BLOCK     ECODE    ---       LVL=0
      WR4         REGSYM    ---      WORD      temp
      00FEA281H   LINE      ECODE    ---       #149
      00FEA281H   LINE      ECODE    ---       #150
      00FEA281H   LINE      ECODE    ---       #152
      00FEA289H   LINE      ECODE    ---       #153
      ---         BLOCKEND  ---      ---       LVL=0

L251 LINKER/LOCATER V4.66.93.0                                                        08/24/2022  19:19:43  PAGE 78


      00FEA29CH   BLOCK     ECODE    ---       LVL=0
      00FEA29CH   LINE      ECODE    ---       #155
      00FEA29CH   LINE      ECODE    ---       #157
      00FEA29EH   LINE      ECODE    ---       #158
      00FEA2A0H   LINE      ECODE    ---       #159
      00FEA2A2H   LINE      ECODE    ---       #160
      00FEA2A6H   LINE      ECODE    ---       #161
      00FEA2A8H   LINE      ECODE    ---       #162
      00FEA2AAH   LINE      ECODE    ---       #166
      00FEA2AEH   LINE      ECODE    ---       #174
      00FEA2B0H   LINE      ECODE    ---       #175
      00FEA2B2H   LINE      ECODE    ---       #177
      00FEA2B5H   LINE      ECODE    ---       #178
      00FEA2B6H   LINE      ECODE    ---       #179
      00FEA2B7H   LINE      ECODE    ---       #180
      ---         BLOCKEND  ---      ---       LVL=0

      00FEA2B8H   BLOCK     ECODE    ---       LVL=0
      00FEA2B8H   LINE      ECODE    ---       #181
      00FEA2B8H   LINE      ECODE    ---       #183
      00FEA2BAH   LINE      ECODE    ---       #184
      00FEA2BCH   LINE      ECODE    ---       #185
      00FEA2BEH   LINE      ECODE    ---       #186
      00FEA2C2H   LINE      ECODE    ---       #187
      00FEA2C4H   LINE      ECODE    ---       #188
      00FEA2C6H   LINE      ECODE    ---       #190
      00FEA2CAH   LINE      ECODE    ---       #191
      00FEA2CEH   LINE      ECODE    ---       #197
      00FEA2D1H   LINE      ECODE    ---       #198
      00FEA2DDH   LINE      ECODE    ---       #199
      00FEA2E0H   LINE      ECODE    ---       #201
      00FEA2E2H   LINE      ECODE    ---       #202
      00FEA2E4H   LINE      ECODE    ---       #231
      00FEA2E6H   LINE      ECODE    ---       #232
      00FEA2E9H   LINE      ECODE    ---       #233
      ---         BLOCKEND  ---      ---       LVL=0

      00FEA2EAH   BLOCK     ECODE    ---       LVL=0
      00FEA2EAH   LINE      ECODE    ---       #234
      00FEA2EAH   LINE      ECODE    ---       #237
      00FEA2ECH   LINE      ECODE    ---       #238
      00FEA2EEH   LINE      ECODE    ---       #239
      00FEA2F0H   LINE      ECODE    ---       #240
      00FEA2F2H   LINE      ECODE    ---       #241
      00FEA2F4H   LINE      ECODE    ---       #245
      ---         BLOCKEND  ---      ---       LVL=0

      00FEA2F8H   BLOCK     ECODE    ---       LVL=0
      00FEA2F8H   LINE      ECODE    ---       #250
      00FEA2F8H   LINE      ECODE    ---       #252
      00FEA2FBH   LINE      ECODE    ---       #255
      00FEA2FFH   LINE      ECODE    ---       #258
      00FEA303H   LINE      ECODE    ---       #259
      00FEA307H   LINE      ECODE    ---       #262
      00FEA30BH   LINE      ECODE    ---       #265
      00FEA30FH   LINE      ECODE    ---       #268
      00FEA313H   LINE      ECODE    ---       #269
      00FEA317H   LINE      ECODE    ---       #272
      00FEA31BH   LINE      ECODE    ---       #275
      00FEA31FH   LINE      ECODE    ---       #278
      00FEA323H   LINE      ECODE    ---       #280
      00FEA32BH   LINE      ECODE    ---       #285
      00FEA32DH   LINE      ECODE    ---       #288
      ---         BLOCKEND  ---      ---       LVL=0

L251 LINKER/LOCATER V4.66.93.0                                                        08/24/2022  19:19:43  PAGE 79


      ---         MODULE    ---      ---       RX8130CE
      00FE6F3DH   PUBLIC    ECODE    ---       RX8130CEReadTime?
      00FE72E5H   PUBLIC    ECODE    ---       RX8130CEInit?
      00FE70FEH   PUBLIC    ECODE    ---       RX8130CESetAlarm?
      00FE702CH   PUBLIC    ECODE    ---       RX8130CEWriteTime?
      00FE71E5H   PUBLIC    ECODE    ---       RX8130CEDisableAlarm?
      00FE721FH   PUBLIC    ECODE    ---       RX8130CESetTimer?
      00FE729CH   PUBLIC    ECODE    ---       RX8130CEDisableTimer?
      00FE72B2H   PUBLIC    ECODE    ---       RX8130CESetClockOuput?
      00FE71C3H   PUBLIC    ECODE    ---       RX8130CEAlarmHandle?
      00FE72D9H   PUBLIC    ECODE    ---       RX8130CEReadIntSrc?
      00FE71DAH   PUBLIC    ECODE    ---       RX8130CEClearAlarmFlag?
      00FE6F0EH   PUBLIC    ECODE    ---       RX8130RegSetBit?
      00FE7291H   PUBLIC    ECODE    ---       RX8130CEClearTimerFlag?

      00FE6F0EH   BLOCK     ECODE    ---       LVL=0
      R14         REGSYM    ---      BYTE      addr
      R15         REGSYM    ---      BYTE      mask
      R13         REGSYM    ---      BYTE      sc
      00FE6F18H   BLOCK     ECODE    NEAR LAB  LVL=1
      R6          REGSYM    ---      BYTE      temp
      ---         BLOCKEND  ---      ---       LVL=1
      00FE6F0EH   LINE      ECODE    ---       #4
      00FE6F18H   LINE      ECODE    ---       #5
      00FE6F18H   LINE      ECODE    ---       #7
      00FE6F22H   LINE      ECODE    ---       #8
      00FE6F26H   LINE      ECODE    ---       #9
      00FE6F2AH   LINE      ECODE    ---       #11
      00FE6F30H   LINE      ECODE    ---       #12
      00FE6F38H   LINE      ECODE    ---       #13
      ---         BLOCKEND  ---      ---       LVL=0

      00FE6F3DH   BLOCK     ECODE    ---       LVL=0
      REG=3       REGSYM    ---      ---       t
      00FE6F41H   BLOCK     ECODE    NEAR LAB  LVL=1
      000007A7H   SYMBOL    EDATA    ---       temp
      000007AEH   SYMBOL    EDATA    BYTE      i
      ---         BLOCKEND  ---      ---       LVL=1
      00FE6F3DH   LINE      ECODE    ---       #14
      00FE6F41H   LINE      ECODE    ---       #15
      00FE6F41H   LINE      ECODE    ---       #17
      00FE6F46H   LINE      ECODE    ---       #18
      00FE6F56H   LINE      ECODE    ---       #19
      00FE6F70H   LINE      ECODE    ---       #20
      00FE6F8BH   LINE      ECODE    ---       #21
      00FE6FA6H   LINE      ECODE    ---       #22
      00FE6FAFH   LINE      ECODE    ---       #23
      00FE6FB5H   LINE      ECODE    ---       #24
      00FE6FB7H   LINE      ECODE    ---       #26
      00FE6FC1H   LINE      ECODE    ---       #27
      00FE6FCAH   LINE      ECODE    ---       #28
      00FE6FD0H   LINE      ECODE    ---       #29
      00FE6FD8H   LINE      ECODE    ---       #30
      00FE6FF3H   LINE      ECODE    ---       #31
      00FE700EH   LINE      ECODE    ---       #32
      00FE7029H   LINE      ECODE    ---       #33
      ---         BLOCKEND  ---      ---       LVL=0

      00FE702CH   BLOCK     ECODE    ---       LVL=0
      REG=7       REGSYM    ---      ---       t
      00FE702EH   BLOCK     ECODE    NEAR LAB  LVL=1
      000007ABH   SYMBOL    EDATA    ---       temp
      ---         BLOCKEND  ---      ---       LVL=1
      00FE702CH   LINE      ECODE    ---       #34
      00FE702EH   LINE      ECODE    ---       #35
L251 LINKER/LOCATER V4.66.93.0                                                        08/24/2022  19:19:43  PAGE 80


      00FE702EH   LINE      ECODE    ---       #37
      00FE704DH   LINE      ECODE    ---       #38
      00FE7069H   LINE      ECODE    ---       #39
      00FE7085H   LINE      ECODE    ---       #40
      00FE709CH   LINE      ECODE    ---       #41
      00FE70B8H   LINE      ECODE    ---       #42
      00FE70D4H   LINE      ECODE    ---       #43
      00FE70EEH   LINE      ECODE    ---       #44
      ---         BLOCKEND  ---      ---       LVL=0

      00FE70FEH   BLOCK     ECODE    ---       LVL=0
      REG=7       REGSYM    ---      ---       a
      00FE7102H   BLOCK     ECODE    NEAR LAB  LVL=1
      R14         REGSYM    ---      BYTE      alarm_hour
      R13         REGSYM    ---      BYTE      alarm_minute
      R15         REGSYM    ---      BYTE      alarm_week_day
      ---         BLOCKEND  ---      ---       LVL=1
      00FE70FEH   LINE      ECODE    ---       #46
      00FE7102H   LINE      ECODE    ---       #47
      00FE7102H   LINE      ECODE    ---       #49
      00FE711FH   LINE      ECODE    ---       #50
      00FE7137H   LINE      ECODE    ---       #51
      00FE7145H   LINE      ECODE    ---       #53
      00FE7148H   LINE      ECODE    ---       #54
      00FE714AH   LINE      ECODE    ---       #55
      00FE714FH   LINE      ECODE    ---       #57
      00FE7152H   LINE      ECODE    ---       #58
      00FE7159H   LINE      ECODE    ---       #59
      00FE715BH   LINE      ECODE    ---       #60
      00FE7160H   LINE      ECODE    ---       #62
      00FE717CH   LINE      ECODE    ---       #63
      00FE7188H   LINE      ECODE    ---       #64
      00FE7188H   LINE      ECODE    ---       #65
      00FE7193H   LINE      ECODE    ---       #66
      00FE719EH   LINE      ECODE    ---       #67
      00FE71A9H   LINE      ECODE    ---       #68
      00FE71B5H   LINE      ECODE    ---       #69
      00FE71C0H   LINE      ECODE    ---       #70
      ---         BLOCKEND  ---      ---       LVL=0

      00FE71C3H   BLOCK     ECODE    ---       LVL=0
      REG=3       REGSYM    ---      ---       a
      00FE71C3H   LINE      ECODE    ---       #71
      00FE71C7H   LINE      ECODE    ---       #73
      00FE71CEH   LINE      ECODE    ---       #75
      00FE71D2H   LINE      ECODE    ---       #76
      00FE71D7H   LINE      ECODE    ---       #77
      ---         BLOCKEND  ---      ---       LVL=0

      00FE71DAH   BLOCK     ECODE    ---       LVL=0
      00FE71DAH   LINE      ECODE    ---       #79
      00FE71DAH   LINE      ECODE    ---       #81
      ---         BLOCKEND  ---      ---       LVL=0

      00FE71E5H   BLOCK     ECODE    ---       LVL=0
      00FE71E5H   LINE      ECODE    ---       #83
      00FE71E5H   LINE      ECODE    ---       #85
      00FE71F1H   LINE      ECODE    ---       #86
      00FE71FDH   LINE      ECODE    ---       #87
      00FE7209H   LINE      ECODE    ---       #88
      00FE7214H   LINE      ECODE    ---       #89
      ---         BLOCKEND  ---      ---       LVL=0

      00FE721FH   BLOCK     ECODE    ---       LVL=0
      R13         REGSYM    ---      BYTE      timer_clk
L251 LINKER/LOCATER V4.66.93.0                                                        08/24/2022  19:19:43  PAGE 81


      WR14        REGSYM    ---      WORD      down_cnt_value
      00FE721FH   LINE      ECODE    ---       #91
      00FE7227H   LINE      ECODE    ---       #94
      00FE7232H   LINE      ECODE    ---       #96
      00FE723DH   LINE      ECODE    ---       #97
      00FE7248H   LINE      ECODE    ---       #99
      00FE7253H   LINE      ECODE    ---       #101
      00FE725EH   LINE      ECODE    ---       #102
      00FE726AH   LINE      ECODE    ---       #104
      00FE7275H   LINE      ECODE    ---       #105
      00FE7281H   LINE      ECODE    ---       #106
      00FE728CH   LINE      ECODE    ---       #107
      ---         BLOCKEND  ---      ---       LVL=0

      00FE7291H   BLOCK     ECODE    ---       LVL=0
      00FE7291H   LINE      ECODE    ---       #108
      00FE7291H   LINE      ECODE    ---       #110
      ---         BLOCKEND  ---      ---       LVL=0

      00FE729CH   BLOCK     ECODE    ---       LVL=0
      00FE729CH   LINE      ECODE    ---       #113
      00FE729CH   LINE      ECODE    ---       #116
      00FE72A7H   LINE      ECODE    ---       #118
      ---         BLOCKEND  ---      ---       LVL=0

      00FE72B2H   BLOCK     ECODE    ---       LVL=0
      R15         REGSYM    ---      BYTE      clock_fq
      00FE72B2H   LINE      ECODE    ---       #120
      00FE72B6H   LINE      ECODE    ---       #122
      00FE72C1H   LINE      ECODE    ---       #123
      00FE72D6H   LINE      ECODE    ---       #124
      ---         BLOCKEND  ---      ---       LVL=0

      00FE72D9H   BLOCK     ECODE    ---       LVL=0
      R11         REGSYM    ---      BYTE      temp
      00FE72D9H   LINE      ECODE    ---       #125
      00FE72D9H   LINE      ECODE    ---       #126
      00FE72D9H   LINE      ECODE    ---       #128
      00FE72E2H   LINE      ECODE    ---       #129
      00FE72E4H   LINE      ECODE    ---       #130
      ---         BLOCKEND  ---      ---       LVL=0

      00FE72E5H   BLOCK     ECODE    ---       LVL=0
      00FE72E5H   LINE      ECODE    ---       #131
      00FE72E5H   LINE      ECODE    ---       #133
      00FE72EBH   LINE      ECODE    ---       #134
      00FE72EFH   LINE      ECODE    ---       #135
      00FE72F3H   LINE      ECODE    ---       #136
      ---         BLOCKEND  ---      ---       LVL=0

      ---         MODULE    ---      ---       oled
      00FEA33DH   PUBLIC    ECODE    ---       OLED_Display_On?
      00FEA3E2H   PUBLIC    ECODE    ---       OLED_Init?
      00FEA36BH   PUBLIC    ECODE    ---       OLED_Set_Brightness?
      00FEA3D3H   PUBLIC    ECODE    ---       OLED_Refresh?
      00FEA354H   PUBLIC    ECODE    ---       OLED_Display_Off?
      00FEA331H   PUBLIC    ECODE    ---       OLED_WR_CMD?
      00FEA3A6H   PUBLIC    ECODE    ---       OLED_Inverse?
      00FEA337H   PUBLIC    ECODE    ---       OLED_WR_DAT?
      00FEA382H   PUBLIC    ECODE    ---       OLED_setBreathing?
      00FEA3BBH   PUBLIC    ECODE    ---       OLED_Clear?
      000000D0H   SFRSYM    DATA     BYTE      PSW
      000000C0H.7 SFRSYM    DATA     BIT       P47
      00000088H   SFRSYM    DATA     BYTE      TCON
      00000098H   SFRSYM    DATA     BYTE      SCON
L251 LINKER/LOCATER V4.66.93.0                                                        08/24/2022  19:19:43  PAGE 82


      00000090H.1 SFRSYM    DATA     BIT       P11
      00000090H.0 SFRSYM    DATA     BIT       P10
      000000B8H   SFRSYM    DATA     BYTE      IP
      000000A8H   SFRSYM    DATA     BYTE      IE
      000000F8H   SFRSYM    DATA     BYTE      P7
      000000E8H   SFRSYM    DATA     BYTE      P6
      000000C8H   SFRSYM    DATA     BYTE      P5
      000000C0H   SFRSYM    DATA     BYTE      P4
      000000B0H   SFRSYM    DATA     BYTE      P3
      000000A0H   SFRSYM    DATA     BYTE      P2
      00000090H   SFRSYM    DATA     BYTE      P1
      00000080H   SFRSYM    DATA     BYTE      P0

      00FEA331H   BLOCK     ECODE    ---       LVL=0
      R7          REGSYM    ---      BYTE      cmd
      00FEA331H   LINE      ECODE    ---       #5
      00FEA331H   LINE      ECODE    ---       #7
      00FEA333H   LINE      ECODE    ---       #8
      ---         BLOCKEND  ---      ---       LVL=0

      00FEA337H   BLOCK     ECODE    ---       LVL=0
      R7          REGSYM    ---      BYTE      dat
      00FEA337H   LINE      ECODE    ---       #10
      00FEA337H   LINE      ECODE    ---       #12
      00FEA339H   LINE      ECODE    ---       #13
      ---         BLOCKEND  ---      ---       LVL=0

      00FEA33DH   BLOCK     ECODE    ---       LVL=0
      00FEA33DH   LINE      ECODE    ---       #24
      00FEA33DH   LINE      ECODE    ---       #26
      00FEA33FH   LINE      ECODE    ---       #27
      00FEA345H   LINE      ECODE    ---       #28
      00FEA34BH   LINE      ECODE    ---       #29
      00FEA351H   LINE      ECODE    ---       #30
      00FEA353H   LINE      ECODE    ---       #31
      ---         BLOCKEND  ---      ---       LVL=0

      00FEA354H   BLOCK     ECODE    ---       LVL=0
      00FEA354H   LINE      ECODE    ---       #33
      00FEA354H   LINE      ECODE    ---       #35
      00FEA356H   LINE      ECODE    ---       #36
      00FEA35CH   LINE      ECODE    ---       #37
      00FEA362H   LINE      ECODE    ---       #38
      00FEA368H   LINE      ECODE    ---       #39
      00FEA36AH   LINE      ECODE    ---       #40
      ---         BLOCKEND  ---      ---       LVL=0

      00FEA36BH   BLOCK     ECODE    ---       LVL=0
      R15         REGSYM    ---      BYTE      brightness
      00FEA36BH   LINE      ECODE    ---       #41
      00FEA36FH   LINE      ECODE    ---       #43
      00FEA371H   LINE      ECODE    ---       #44
      00FEA377H   LINE      ECODE    ---       #45
      00FEA37DH   LINE      ECODE    ---       #46
      00FEA37FH   LINE      ECODE    ---       #47
      ---         BLOCKEND  ---      ---       LVL=0

      00FEA382H   BLOCK     ECODE    ---       LVL=0
      R14         REGSYM    ---      BYTE      k
      R15         REGSYM    ---      BYTE      interval
      00FEA382H   LINE      ECODE    ---       #48
      00FEA388H   LINE      ECODE    ---       #50
      00FEA38AH   LINE      ECODE    ---       #51
      00FEA390H   LINE      ECODE    ---       #52
      00FEA394H   LINE      ECODE    ---       #53
L251 LINKER/LOCATER V4.66.93.0                                                        08/24/2022  19:19:43  PAGE 83


      00FEA39CH   LINE      ECODE    ---       #55
      00FEA3A1H   LINE      ECODE    ---       #56
      00FEA3A3H   LINE      ECODE    ---       #57
      ---         BLOCKEND  ---      ---       LVL=0

      00FEA3A6H   BLOCK     ECODE    ---       LVL=0
      R7          REGSYM    ---      BYTE      k
      00FEA3A6H   LINE      ECODE    ---       #74
      00FEA3A8H   LINE      ECODE    ---       #76
      00FEA3AAH   LINE      ECODE    ---       #77
      00FEA3AEH   LINE      ECODE    ---       #78
      00FEA3B2H   LINE      ECODE    ---       #80
      00FEA3B8H   LINE      ECODE    ---       #81
      00FEA3BAH   LINE      ECODE    ---       #82
      ---         BLOCKEND  ---      ---       LVL=0

      00FEA3BBH   BLOCK     ECODE    ---       LVL=0
      00FEA3BDH   BLOCK     ECODE    NEAR LAB  LVL=1
      WR14        REGSYM    ---      WORD      n
      ---         BLOCKEND  ---      ---       LVL=1
      00FEA3BBH   LINE      ECODE    ---       #83
      00FEA3BDH   LINE      ECODE    ---       #84
      00FEA3BDH   LINE      ECODE    ---       #89
      00FEA3BFH   LINE      ECODE    ---       #90
      00FEA3C1H   LINE      ECODE    ---       #91
      00FEA3CEH   LINE      ECODE    ---       #92
      00FEA3D0H   LINE      ECODE    ---       #93
      ---         BLOCKEND  ---      ---       LVL=0

      00FEA3D3H   BLOCK     ECODE    ---       LVL=0
      REG=1       REGSYM    ---      ---       buf
      00FEA3D3H   LINE      ECODE    ---       #94
      00FEA3D3H   LINE      ECODE    ---       #106
      00FEA3D5H   LINE      ECODE    ---       #107
      00FEA3D7H   LINE      ECODE    ---       #114
      00FEA3DFH   LINE      ECODE    ---       #115
      00FEA3E1H   LINE      ECODE    ---       #116
      ---         BLOCKEND  ---      ---       LVL=0

      00FEA3E2H   BLOCK     ECODE    ---       LVL=0
      00FEA3E2H   LINE      ECODE    ---       #118
      00FEA3E2H   LINE      ECODE    ---       #120
      00FEA3E4H   LINE      ECODE    ---       #121
      00FEA3ECH   LINE      ECODE    ---       #122
      00FEA3EEH   LINE      ECODE    ---       #123
      00FEA3F6H   LINE      ECODE    ---       #124
      00FEA3F8H   LINE      ECODE    ---       #125
      00FEA3FAH   LINE      ECODE    ---       #127
      00FEA400H   LINE      ECODE    ---       #128
      00FEA406H   LINE      ECODE    ---       #129
      00FEA40CH   LINE      ECODE    ---       #130
      00FEA412H   LINE      ECODE    ---       #131
      00FEA418H   LINE      ECODE    ---       #132
      00FEA41EH   LINE      ECODE    ---       #133
      00FEA424H   LINE      ECODE    ---       #134
      00FEA42AH   LINE      ECODE    ---       #135
      00FEA430H   LINE      ECODE    ---       #136
      00FEA436H   LINE      ECODE    ---       #137
      00FEA43CH   LINE      ECODE    ---       #138
      00FEA441H   LINE      ECODE    ---       #139
      00FEA447H   LINE      ECODE    ---       #140
      00FEA44DH   LINE      ECODE    ---       #141
      00FEA453H   LINE      ECODE    ---       #142
      00FEA459H   LINE      ECODE    ---       #143
      00FEA45FH   LINE      ECODE    ---       #144
L251 LINKER/LOCATER V4.66.93.0                                                        08/24/2022  19:19:43  PAGE 84


      00FEA465H   LINE      ECODE    ---       #145
      00FEA46BH   LINE      ECODE    ---       #146
      00FEA471H   LINE      ECODE    ---       #147
      00FEA477H   LINE      ECODE    ---       #148
      00FEA47CH   LINE      ECODE    ---       #149
      00FEA482H   LINE      ECODE    ---       #150
      00FEA487H   LINE      ECODE    ---       #151
      00FEA48DH   LINE      ECODE    ---       #152
      00FEA493H   LINE      ECODE    ---       #153
      00FEA498H   LINE      ECODE    ---       #154
      00FEA49EH   LINE      ECODE    ---       #156
      00FEA4A4H   LINE      ECODE    ---       #157
      00FEA4AAH   LINE      ECODE    ---       #158
      00FEA4B0H   LINE      ECODE    ---       #159
      00FEA4B6H   LINE      ECODE    ---       #160
      00FEA4BCH   LINE      ECODE    ---       #166
      00FEA4BEH   LINE      ECODE    ---       #167
      ---         BLOCKEND  ---      ---       LVL=0

      ---         MODULE    ---      ---       main
      00FEB10EH   PUBLIC    ECODE    ---       main?
      000000D0H   SFRSYM    DATA     BYTE      PSW
      00000088H   SFRSYM    DATA     BYTE      TCON
      00000098H   SFRSYM    DATA     BYTE      SCON
      000000B8H   SFRSYM    DATA     BYTE      IP
      000000A8H   SFRSYM    DATA     BYTE      IE
      000000F8H   SFRSYM    DATA     BYTE      P7
      000000E8H   SFRSYM    DATA     BYTE      P6
      000000C8H   SFRSYM    DATA     BYTE      P5
      000000C0H   SFRSYM    DATA     BYTE      P4
      000000B0H   SFRSYM    DATA     BYTE      P3
      000000A0H   SFRSYM    DATA     BYTE      P2
      00000090H   SFRSYM    DATA     BYTE      P1
      00000080H   SFRSYM    DATA     BYTE      P0

      00FEB10EH   BLOCK     ECODE    ---       LVL=0
      00FEB10EH   LINE      ECODE    ---       #3
      00FEB10EH   LINE      ECODE    ---       #5
      00FEB112H   LINE      ECODE    ---       #6
      00FEB112H   LINE      ECODE    ---       #8
      00FEB116H   LINE      ECODE    ---       #9
      00FEB11AH   LINE      ECODE    ---       #10
      00FEB11EH   LINE      ECODE    ---       #11
      00FEB122H   LINE      ECODE    ---       #13
      ---         BLOCKEND  ---      ---       LVL=0

      ---         MODULE    ---      ---       iWatch
      00FE15DDH   PUBLIC    ECODE    ---       iWatchPowerDown?
      00FE1AECH   PUBLIC    ECODE    ---       SensorInit?
      00FE11B5H   PUBLIC    ECODE    ---       INT0_Isr?
      00FE11DCH   PUBLIC    ECODE    ---       INT1_Isr?
      00FE11F3H   PUBLIC    ECODE    ---       INT2_Isr?
      00FE120AH   PUBLIC    ECODE    ---       INT3_Isr?
      00FE10C8H   PUBLIC    ECODE    ---       KeyScan?
      00FE1653H   PUBLIC    ECODE    ---       iWatchReadConfig?
      00FE12B4H   PUBLIC    ECODE    ---       iWatchStatusHandle?
      00FE1589H   PUBLIC    ECODE    ---       iWatchKeepActive?
      00FE161FH   PUBLIC    ECODE    ---       iWatchSaveConfig?
      00FE1221H   PUBLIC    ECODE    ---       iWatchStatusUpdate?
      00FE159BH   PUBLIC    ECODE    ---       iWatchSleep?
      00FE1138H   PUBLIC    ECODE    ---       TM1_Isr?
      00FE16E6H   PUBLIC    ECODE    ---       iWatchGetBatteryLife?
      00FE1B49H   PUBLIC    ECODE    ---       DisplayInit?
      00FE1B69H   PUBLIC    ECODE    ---       iWatchInit?
      00FE1A72H   PUBLIC    ECODE    ---       DrawBatteryIcon?
L251 LINKER/LOCATER V4.66.93.0                                                        08/24/2022  19:19:43  PAGE 85


      0001146BH   PUBLIC    XDATA    ---       battery
      00011485H   PUBLIC    XDATA    FLOAT     battery_life
      00011489H   PUBLIC    XDATA    ---       LSM6DSM
      000114A3H   PUBLIC    XDATA    ---       HTU21D
      000114ABH   PUBLIC    XDATA    BYTE      sensor_status
      000114ADH   PUBLIC    XDATA    ---       time
      000114B4H   PUBLIC    XDATA    ---       mag
      000114BAH   PUBLIC    XDATA    WORD      iWatch_action
      000114BCH   PUBLIC    XDATA    WORD      iWatch_status
      000114BFH   PUBLIC    XDATA    ---       config
      00011507H   PUBLIC    XDATA    ---       BMP390
      00FF17F1H   PUBLIC    CODE     ---       BATTERY_LIFE_ICON
      00FF1851H   PUBLIC    CODE     ---       BATTERY_CHARGING
      000000D0H   SFRSYM    DATA     BYTE      PSW
      000000B0H.7 SFRSYM    DATA     BIT       P37
      00000080H.7 SFRSYM    DATA     BIT       P07
      000000C0H.3 SFRSYM    DATA     BIT       P43
      00000080H.6 SFRSYM    DATA     BIT       P06
      00000088H   SFRSYM    DATA     BYTE      TCON
      000000B0H.2 SFRSYM    DATA     BIT       P32
      00000090H.3 SFRSYM    DATA     BIT       P13
      00000098H   SFRSYM    DATA     BYTE      SCON
      000000B8H   SFRSYM    DATA     BYTE      IP
      000000A8H   SFRSYM    DATA     BYTE      IE
      000000F8H   SFRSYM    DATA     BYTE      P7
      000000E8H   SFRSYM    DATA     BYTE      P6
      000000C8H   SFRSYM    DATA     BYTE      P5
      000000C0H   SFRSYM    DATA     BYTE      P4
      000000B0H   SFRSYM    DATA     BYTE      P3
      000000A0H   SFRSYM    DATA     BYTE      P2
      00000090H   SFRSYM    DATA     BYTE      P1
      00000080H   SFRSYM    DATA     BYTE      P0
      000114A1H   SYMBOL    XDATA    WORD      autowake_cnt
      000114ACH   SYMBOL    XDATA    BYTE      t_inactive
      000114BEH   SYMBOL    XDATA    BYTE      t_idle
      00FF1809H   SYMBOL    CODE     ---       default_config

      00FE10C8H   BLOCK     ECODE    ---       LVL=0
      0000095DH   SYMBOL    EDATA    WORD      t_key_press
      R10         REGSYM    ---      BYTE      dat
      00FE10C8H   LINE      ECODE    ---       #10
      00FE10C8H   LINE      ECODE    ---       #11
      00FE10C8H   LINE      ECODE    ---       #13
      00FE10CAH   LINE      ECODE    ---       #14
      00FE10D0H   LINE      ECODE    ---       #15
      00FE10D3H   LINE      ECODE    ---       #16
      00FE10D9H   LINE      ECODE    ---       #17
      00FE10DCH   LINE      ECODE    ---       #18
      00FE10E2H   LINE      ECODE    ---       #19
      00FE10E5H   LINE      ECODE    ---       #20
      00FE10EBH   LINE      ECODE    ---       #21
      00FE10EEH   LINE      ECODE    ---       #22
      00FE10FAH   LINE      ECODE    ---       #23
      00FE1106H   LINE      ECODE    ---       #24
      00FE110BH   LINE      ECODE    ---       #25
      00FE110FH   LINE      ECODE    ---       #26
      00FE1113H   LINE      ECODE    ---       #28
      00FE1123H   LINE      ECODE    ---       #30
      00FE112BH   LINE      ECODE    ---       #31
      00FE112FH   LINE      ECODE    ---       #32
      00FE1131H   LINE      ECODE    ---       #35
      00FE1137H   LINE      ECODE    ---       #36
      ---         BLOCKEND  ---      ---       LVL=0

      00FE1138H   BLOCK     ECODE    ---       LVL=0
L251 LINKER/LOCATER V4.66.93.0                                                        08/24/2022  19:19:43  PAGE 86


      00FE114CH   BLOCK     ECODE    NEAR LAB  LVL=1
      0000095FH   SYMBOL    EDATA    WORD      t_cnt
      ---         BLOCKEND  ---      ---       LVL=1
      00FE1138H   LINE      ECODE    ---       #37
      00FE114CH   LINE      ECODE    ---       #38
      00FE114CH   LINE      ECODE    ---       #40
      00FE1150H   LINE      ECODE    ---       #41
      00FE1154H   LINE      ECODE    ---       #42
      00FE1162H   LINE      ECODE    ---       #44
      00FE1166H   LINE      ECODE    ---       #45
      00FE116CH   LINE      ECODE    ---       #46
      00FE1176H   LINE      ECODE    ---       #47
      00FE1182H   LINE      ECODE    ---       #49
      00FE1186H   LINE      ECODE    ---       #50
      00FE1186H   LINE      ECODE    ---       #52
      00FE1196H   LINE      ECODE    ---       #54
      00FE119CH   LINE      ECODE    ---       #55
      00FE11A0H   LINE      ECODE    ---       #56
      ---         BLOCKEND  ---      ---       LVL=0

      00FE11B5H   BLOCK     ECODE    ---       LVL=0
      00FE11B5H   LINE      ECODE    ---       #58
      00FE11BDH   LINE      ECODE    ---       #60
      00FE11C3H   LINE      ECODE    ---       #61
      00FE11C9H   LINE      ECODE    ---       #63
      00FE11D3H   LINE      ECODE    ---       #64
      ---         BLOCKEND  ---      ---       LVL=0

      00FE11DCH   BLOCK     ECODE    ---       LVL=0
      00FE11DCH   LINE      ECODE    ---       #65
      00FE11E2H   LINE      ECODE    ---       #67
      00FE11ECH   LINE      ECODE    ---       #68
      ---         BLOCKEND  ---      ---       LVL=0

      00FE11F3H   BLOCK     ECODE    ---       LVL=0
      00FE11F3H   LINE      ECODE    ---       #69
      00FE11F9H   LINE      ECODE    ---       #71
      00FE1203H   LINE      ECODE    ---       #72
      ---         BLOCKEND  ---      ---       LVL=0

      00FE120AH   BLOCK     ECODE    ---       LVL=0
      00FE120AH   LINE      ECODE    ---       #73
      00FE1210H   LINE      ECODE    ---       #75
      00FE121AH   LINE      ECODE    ---       #76
      ---         BLOCKEND  ---      ---       LVL=0

      00FE1221H   BLOCK     ECODE    ---       LVL=0
      00FE1221H   LINE      ECODE    ---       #77
      00FE1221H   LINE      ECODE    ---       #79
      00FE122FH   LINE      ECODE    ---       #81
      00FE1239H   LINE      ECODE    ---       #83
      00FE1244H   LINE      ECODE    ---       #84
      00FE1249H   LINE      ECODE    ---       #85
      00FE1255H   LINE      ECODE    ---       #86
      00FE1255H   LINE      ECODE    ---       #87
      00FE1257H   LINE      ECODE    ---       #90
      00FE1261H   LINE      ECODE    ---       #92
      00FE126AH   LINE      ECODE    ---       #93
      00FE126FH   LINE      ECODE    ---       #94
      00FE127BH   LINE      ECODE    ---       #95
      00FE1280H   LINE      ECODE    ---       #96
      00FE1280H   LINE      ECODE    ---       #98
      00FE1280H   LINE      ECODE    ---       #99
      00FE128EH   LINE      ECODE    ---       #101
      00FE1299H   LINE      ECODE    ---       #103
L251 LINKER/LOCATER V4.66.93.0                                                        08/24/2022  19:19:43  PAGE 87


      00FE12A2H   LINE      ECODE    ---       #104
      00FE12A7H   LINE      ECODE    ---       #105
      00FE12B3H   LINE      ECODE    ---       #106
      00FE12B3H   LINE      ECODE    ---       #108
      ---         BLOCKEND  ---      ---       LVL=0

      00FE12B4H   BLOCK     ECODE    ---       LVL=0
      00FE12B6H   BLOCK     ECODE    NEAR LAB  LVL=1
      00FE1544H   SYMBOL    ECODE    NEAR LAB  Sleep
      00FE1358H   BLOCK     ECODE    NEAR LAB  LVL=2
      R11         REGSYM    ---      BYTE      temp
      00FE13B7H   BLOCK     ECODE    NEAR LAB  LVL=3
      WR14        REGSYM    ---      INT       i
      ---         BLOCKEND  ---      ---       LVL=3
      ---         BLOCKEND  ---      ---       LVL=2
      ---         BLOCKEND  ---      ---       LVL=1
      00FE12B4H   LINE      ECODE    ---       #109
      00FE12B6H   LINE      ECODE    ---       #110
      00FE12B6H   LINE      ECODE    ---       #112
      00FE12C3H   LINE      ECODE    ---       #114
      00FE12E5H   LINE      ECODE    ---       #116
      00FE12E5H   LINE      ECODE    ---       #118
      00FE12F4H   LINE      ECODE    ---       #119
      00FE12FAH   LINE      ECODE    ---       #120
      00FE12FDH   LINE      ECODE    ---       #122
      00FE12FDH   LINE      ECODE    ---       #124
      00FE1303H   LINE      ECODE    ---       #125
      00FE1307H   LINE      ECODE    ---       #126
      00FE1315H   LINE      ECODE    ---       #128
      00FE131AH   LINE      ECODE    ---       #129
      00FE131AH   LINE      ECODE    ---       #130
      00FE1320H   LINE      ECODE    ---       #132
      00FE1325H   LINE      ECODE    ---       #133
      00FE1329H   LINE      ECODE    ---       #134
      00FE1335H   LINE      ECODE    ---       #135
      00FE1335H   LINE      ECODE    ---       #136
      00FE133EH   LINE      ECODE    ---       #137
      00FE133EH   LINE      ECODE    ---       #138
      00FE1340H   LINE      ECODE    ---       #140
      00FE1340H   LINE      ECODE    ---       #142
      00FE134FH   LINE      ECODE    ---       #144
      00FE1355H   LINE      ECODE    ---       #145
      00FE1355H   LINE      ECODE    ---       #146
      00FE1358H   LINE      ECODE    ---       #148
      00FE1358H   LINE      ECODE    ---       #149
      00FE1358H   LINE      ECODE    ---       #150
      00FE135CH   LINE      ECODE    ---       #151
      00FE135FH   LINE      ECODE    ---       #153
      00FE1363H   LINE      ECODE    ---       #154
      00FE1367H   LINE      ECODE    ---       #155
      00FE1373H   LINE      ECODE    ---       #156
      00FE137BH   LINE      ECODE    ---       #157
      00FE1387H   LINE      ECODE    ---       #158
      00FE1387H   LINE      ECODE    ---       #159
      00FE138AH   LINE      ECODE    ---       #160
      00FE138AH   LINE      ECODE    ---       #161
      00FE1392H   LINE      ECODE    ---       #163
      00FE1396H   LINE      ECODE    ---       #164
      00FE13A2H   LINE      ECODE    ---       #166
      00FE13A9H   LINE      ECODE    ---       #168
      00FE13B7H   LINE      ECODE    ---       #169
      00FE13B7H   LINE      ECODE    ---       #171
      00FE13BBH   LINE      ECODE    ---       #173
      00FE13DFH   LINE      ECODE    ---       #174
      00FE13E7H   LINE      ECODE    ---       #175
L251 LINKER/LOCATER V4.66.93.0                                                        08/24/2022  19:19:43  PAGE 88


      00FE13EFH   LINE      ECODE    ---       #176
      00FE13F7H   LINE      ECODE    ---       #177
      00FE1401H   LINE      ECODE    ---       #178
      00FE1405H   LINE      ECODE    ---       #179
      00FE1411H   LINE      ECODE    ---       #180
      00FE1411H   LINE      ECODE    ---       #182
      00FE141CH   LINE      ECODE    ---       #183
      00FE1421H   LINE      ECODE    ---       #184
      00FE1424H   LINE      ECODE    ---       #185
      00FE1424H   LINE      ECODE    ---       #187
      00FE1424H   LINE      ECODE    ---       #188
      00FE1424H   LINE      ECODE    ---       #189
      00FE1424H   LINE      ECODE    ---       #191
      00FE1430H   LINE      ECODE    ---       #192
      00FE143CH   LINE      ECODE    ---       #193
      00FE143CH   LINE      ECODE    ---       #195
      00FE143CH   LINE      ECODE    ---       #196
      00FE1444H   LINE      ECODE    ---       #198
      00FE1452H   LINE      ECODE    ---       #200
      00FE1457H   LINE      ECODE    ---       #201
      00FE1459H   LINE      ECODE    ---       #203
      00FE1461H   LINE      ECODE    ---       #205
      00FE146CH   LINE      ECODE    ---       #206
      00FE1471H   LINE      ECODE    ---       #207
      00FE147DH   LINE      ECODE    ---       #208
      00FE1481H   LINE      ECODE    ---       #209
      00FE148DH   LINE      ECODE    ---       #210
      00FE148FH   LINE      ECODE    ---       #212
      00FE1497H   LINE      ECODE    ---       #214
      00FE14A2H   LINE      ECODE    ---       #215
      00FE14AEH   LINE      ECODE    ---       #216
      00FE14B2H   LINE      ECODE    ---       #217
      00FE14BEH   LINE      ECODE    ---       #218
      00FE14C2H   LINE      ECODE    ---       #219
      00FE14C4H   LINE      ECODE    ---       #220
      00FE14CCH   LINE      ECODE    ---       #222
      00FE14D0H   LINE      ECODE    ---       #234
      00FE14D0H   LINE      ECODE    ---       #236
      00FE14DEH   LINE      ECODE    ---       #238
      00FE14E3H   LINE      ECODE    ---       #239
      00FE14E3H   LINE      ECODE    ---       #240
      00FE14EBH   LINE      ECODE    ---       #242
      00FE14F1H   LINE      ECODE    ---       #244
      00FE14F5H   LINE      ECODE    ---       #245
      00FE1501H   LINE      ECODE    ---       #246
      00FE1501H   LINE      ECODE    ---       #248
      00FE150FH   LINE      ECODE    ---       #250
      00FE1518H   LINE      ECODE    ---       #251
      00FE1524H   LINE      ECODE    ---       #253
      00FE1528H   LINE      ECODE    ---       #254
      00FE1534H   LINE      ECODE    ---       #255
      00FE1534H   LINE      ECODE    ---       #256
      00FE1538H   LINE      ECODE    ---       #257
      00FE1544H   LINE      ECODE    ---       #258
      00FE1544H   LINE      ECODE    ---       #259
      00FE1544H   LINE      ECODE    ---       #260
      00FE1550H   LINE      ECODE    ---       #262
      00FE1556H   LINE      ECODE    ---       #264
      00FE155AH   LINE      ECODE    ---       #265
      00FE1562H   LINE      ECODE    ---       #266
      00FE1566H   LINE      ECODE    ---       #267
      00FE1566H   LINE      ECODE    ---       #269
      00FE1572H   LINE      ECODE    ---       #271
      00FE1576H   LINE      ECODE    ---       #272
      00FE1582H   LINE      ECODE    ---       #273
L251 LINKER/LOCATER V4.66.93.0                                                        08/24/2022  19:19:43  PAGE 89


      00FE1586H   LINE      ECODE    ---       #274
      ---         BLOCKEND  ---      ---       LVL=0

      00FE1589H   BLOCK     ECODE    ---       LVL=0
      00FE1589H   LINE      ECODE    ---       #276
      00FE1589H   LINE      ECODE    ---       #278
      00FE1595H   LINE      ECODE    ---       #279
      00FE159AH   LINE      ECODE    ---       #280
      ---         BLOCKEND  ---      ---       LVL=0

      00FE159BH   BLOCK     ECODE    ---       LVL=0
      00FE159BH   LINE      ECODE    ---       #281
      00FE159BH   LINE      ECODE    ---       #283
      00FE15A3H   LINE      ECODE    ---       #284
      00FE15AFH   LINE      ECODE    ---       #285
      00FE15BBH   LINE      ECODE    ---       #286
      00FE15C7H   LINE      ECODE    ---       #287
      00FE15CCH   LINE      ECODE    ---       #288
      00FE15D0H   LINE      ECODE    ---       #289
      00FE15DCH   LINE      ECODE    ---       #290
      ---         BLOCKEND  ---      ---       LVL=0

      00FE15DDH   BLOCK     ECODE    ---       LVL=0
      00FE15DDH   LINE      ECODE    ---       #291
      00FE15DDH   LINE      ECODE    ---       #293
      00FE15E5H   LINE      ECODE    ---       #294
      00FE15F1H   LINE      ECODE    ---       #295
      00FE15FDH   LINE      ECODE    ---       #296
      00FE1609H   LINE      ECODE    ---       #297
      00FE160EH   LINE      ECODE    ---       #298
      00FE1612H   LINE      ECODE    ---       #299
      00FE161EH   LINE      ECODE    ---       #300
      ---         BLOCKEND  ---      ---       LVL=0

      00FE161FH   BLOCK     ECODE    ---       LVL=0
      REG=3       REGSYM    ---      ---       config
      00FE1623H   BLOCK     ECODE    NEAR LAB  LVL=1
      WR4         REGSYM    ---      WORD      i
      WR6         REGSYM    ---      WORD      temp
      ---         BLOCKEND  ---      ---       LVL=1
      00FE161FH   LINE      ECODE    ---       #301
      00FE1623H   LINE      ECODE    ---       #302
      00FE1623H   LINE      ECODE    ---       #303
      00FE1627H   LINE      ECODE    ---       #304
      00FE1627H   LINE      ECODE    ---       #305
      00FE1627H   LINE      ECODE    ---       #306
      00FE163AH   LINE      ECODE    ---       #307
      00FE163EH   LINE      ECODE    ---       #308
      00FE1644H   LINE      ECODE    ---       #309
      00FE1650H   LINE      ECODE    ---       #310
      ---         BLOCKEND  ---      ---       LVL=0

      00FE1653H   BLOCK     ECODE    ---       LVL=0
      REG=3       REGSYM    ---      ---       config
      00FE1657H   BLOCK     ECODE    NEAR LAB  LVL=1
      000007A7H   SYMBOL    EDATA    WORD      i
      000007A9H   SYMBOL    EDATA    WORD      temp
      ---         BLOCKEND  ---      ---       LVL=1
      00FE1653H   LINE      ECODE    ---       #313
      00FE1657H   LINE      ECODE    ---       #314
      00FE1657H   LINE      ECODE    ---       #315
      00FE165DH   LINE      ECODE    ---       #316
      00FE1661H   LINE      ECODE    ---       #318
      00FE1669H   LINE      ECODE    ---       #319
      00FE1669H   LINE      ECODE    ---       #320
L251 LINKER/LOCATER V4.66.93.0                                                        08/24/2022  19:19:43  PAGE 90


      00FE168CH   LINE      ECODE    ---       #322
      00FE169EH   LINE      ECODE    ---       #323
      00FE16A2H   LINE      ECODE    ---       #326
      00FE16A8H   LINE      ECODE    ---       #327
      00FE16D0H   LINE      ECODE    ---       #328
      00FE16D6H   LINE      ECODE    ---       #329
      00FE16E2H   LINE      ECODE    ---       #330
      00FE16E3H   LINE      ECODE    ---       #331
      00FE16E3H   LINE      ECODE    ---       #332
      ---         BLOCKEND  ---      ---       LVL=0

      00FE16E6H   BLOCK     ECODE    ---       LVL=0
      00FE16E8H   BLOCK     ECODE    NEAR LAB  LVL=1
      00000020H.3 SYMBOL    BIT      BIT       first_time_flag
      00000961H   SYMBOL    EDATA    ---       queue
      000007A7H   SYMBOL    EDATA    FLOAT     queue_average
      DR24        REGSYM    ---      FLOAT     bat_v
      DR12        REGSYM    ---      FLOAT     percentage
      000007ABH   SYMBOL    EDATA    BYTE      i
      ---         BLOCKEND  ---      ---       LVL=1
      00FE16E6H   LINE      ECODE    ---       #341
      00FE16E8H   LINE      ECODE    ---       #342
      00FE16E8H   LINE      ECODE    ---       #345
      00FE16EEH   LINE      ECODE    ---       #348
      00FE16F3H   LINE      ECODE    ---       #349
      00FE16F9H   LINE      ECODE    ---       #350
      00FE1709H   LINE      ECODE    ---       #351
      00FE1734H   LINE      ECODE    ---       #352
      00FE1744H   LINE      ECODE    ---       #353
      00FE176FH   LINE      ECODE    ---       #354
      00FE1781H   LINE      ECODE    ---       #355
      00FE17ACH   LINE      ECODE    ---       #356
      00FE17BEH   LINE      ECODE    ---       #357
      00FE17E9H   LINE      ECODE    ---       #358
      00FE17FBH   LINE      ECODE    ---       #359
      00FE1824H   LINE      ECODE    ---       #360
      00FE1836H   LINE      ECODE    ---       #361
      00FE1861H   LINE      ECODE    ---       #362
      00FE1873H   LINE      ECODE    ---       #363
      00FE189EH   LINE      ECODE    ---       #364
      00FE18B0H   LINE      ECODE    ---       #365
      00FE18DBH   LINE      ECODE    ---       #366
      00FE18EDH   LINE      ECODE    ---       #367
      00FE1917H   LINE      ECODE    ---       #368
      00FE1929H   LINE      ECODE    ---       #369
      00FE1953H   LINE      ECODE    ---       #370
      00FE1963H   LINE      ECODE    ---       #371
      00FE198FH   LINE      ECODE    ---       #372
      00FE19A1H   LINE      ECODE    ---       #373
      00FE19C3H   LINE      ECODE    ---       #374
      00FE19D3H   LINE      ECODE    ---       #375
      00FE19D7H   LINE      ECODE    ---       #376
      00FE19E1H   LINE      ECODE    ---       #377
      00FE19E3H   LINE      ECODE    ---       #378
      00FE19E9H   LINE      ECODE    ---       #380
      00FE19EBH   LINE      ECODE    ---       #381
      00FE19F0H   LINE      ECODE    ---       #382
      00FE1A0AH   LINE      ECODE    ---       #383
      00FE1A0AH   LINE      ECODE    ---       #384
      00FE1A10H   LINE      ECODE    ---       #386
      00FE1A29H   LINE      ECODE    ---       #387
      00FE1A3DH   LINE      ECODE    ---       #388
      00FE1A4FH   LINE      ECODE    ---       #389
      00FE1A5DH   LINE      ECODE    ---       #390
      00FE1A6BH   LINE      ECODE    ---       #391
L251 LINKER/LOCATER V4.66.93.0                                                        08/24/2022  19:19:43  PAGE 91


      00FE1A6FH   LINE      ECODE    ---       #392
      00FE1A6FH   LINE      ECODE    ---       #393
      ---         BLOCKEND  ---      ---       LVL=0

      00FE1A72H   BLOCK     ECODE    ---       LVL=0
      DR28        REGSYM    ---      FLOAT     bat
      00FE1A74H   BLOCK     ECODE    NEAR LAB  LVL=1
      R10         REGSYM    ---      BYTE      i
      R7          REGSYM    ---      BYTE      m
      ---         BLOCKEND  ---      ---       LVL=1
      00FE1A72H   LINE      ECODE    ---       #399
      00FE1A74H   LINE      ECODE    ---       #400
      00FE1A74H   LINE      ECODE    ---       #402
      00FE1A80H   LINE      ECODE    ---       #403
      00FE1A89H   LINE      ECODE    ---       #407
      00FE1A8BH   LINE      ECODE    ---       #408
      00FE1AACH   LINE      ECODE    ---       #409
      00FE1ABCH   LINE      ECODE    ---       #410
      00FE1AC1H   LINE      ECODE    ---       #411
      00FE1AE3H   LINE      ECODE    ---       #412
      00FE1AEBH   LINE      ECODE    ---       #413
      00FE1AEBH   LINE      ECODE    ---       #414
      ---         BLOCKEND  ---      ---       LVL=0

      00FE1AECH   BLOCK     ECODE    ---       LVL=0
      00FE1AECH   LINE      ECODE    ---       #417
      00FE1AECH   LINE      ECODE    ---       #419
      00FE1AF1H   LINE      ECODE    ---       #422
      00FE1AF7H   LINE      ECODE    ---       #424
      00FE1AFEH   LINE      ECODE    ---       #425
      00FE1B05H   LINE      ECODE    ---       #426
      00FE1B11H   LINE      ECODE    ---       #427
      00FE1B18H   LINE      ECODE    ---       #428
      00FE1B22H   LINE      ECODE    ---       #429
      00FE1B22H   LINE      ECODE    ---       #433
      00FE1B28H   LINE      ECODE    ---       #435
      00FE1B34H   LINE      ECODE    ---       #436
      00FE1B3BH   LINE      ECODE    ---       #437
      00FE1B3BH   LINE      ECODE    ---       #452
      00FE1B41H   LINE      ECODE    ---       #453
      00FE1B48H   LINE      ECODE    ---       #455
      ---         BLOCKEND  ---      ---       LVL=0

      00FE1B49H   BLOCK     ECODE    ---       LVL=0
      00FE1B49H   LINE      ECODE    ---       #458
      00FE1B49H   LINE      ECODE    ---       #460
      00FE1B4DH   LINE      ECODE    ---       #461
      00FE1B55H   LINE      ECODE    ---       #462
      ---         BLOCKEND  ---      ---       LVL=0

      00FE1B69H   BLOCK     ECODE    ---       LVL=0
      00FE1B69H   LINE      ECODE    ---       #466
      00FE1B69H   LINE      ECODE    ---       #468
      00FE1B6DH   LINE      ECODE    ---       #470
      00FE1B79H   LINE      ECODE    ---       #472
      00FE1B7DH   LINE      ECODE    ---       #474
      00FE1B81H   LINE      ECODE    ---       #476
      00FE1B85H   LINE      ECODE    ---       #479
      00FE1B89H   LINE      ECODE    ---       #482
      ---         BLOCKEND  ---      ---       LVL=0

      ---         MODULE    ---      ---       LSM6DSM
      00FE2F9EH   PUBLIC    ECODE    ---       LSM6DSMEnablePedometer?
      00FE2E22H   PUBLIC    ECODE    ---       LSM6DSMCheckConnection?
      00FE3025H   PUBLIC    ECODE    ---       LSM6DSMResetStepCounter?
L251 LINKER/LOCATER V4.66.93.0                                                        08/24/2022  19:19:43  PAGE 92


      00FE2E3AH   PUBLIC    ECODE    ---       LSM6DSMConfigGyr?
      00FE2DEAH   PUBLIC    ECODE    ---       LSM6DSMReadByte?
      00FE3068H   PUBLIC    ECODE    ---       LSM6DSMInit?
      00FE2DE0H   PUBLIC    ECODE    ---       LSM6DSMWriteByte?
      00FE2E92H   PUBLIC    ECODE    ---       LSM6DSMSoftReset?
      00FE2F6FH   PUBLIC    ECODE    ---       LSM6DSMDisableAWT?
      00FE300AH   PUBLIC    ECODE    ---       LSM6DSMGetCurrentStep?
      00FE2EB2H   PUBLIC    ECODE    ---       LSM6DSMDisableEMbeddedFunc?
      00FE2EBDH   PUBLIC    ECODE    ---       LSM6DSMEnableAWT?
      00FE2EA6H   PUBLIC    ECODE    ---       LSM6DSMEnableEMbeddedFunc?
      00FE2E44H   PUBLIC    ECODE    ---       LSM6DSMReadGYRAndACC?
      00FE2DF4H   PUBLIC    ECODE    ---       LSM6DSMRSetRegisterBits?
      00FE2E30H   PUBLIC    ECODE    ---       LSM6DSMConfigAcc?
      00FE3044H   PUBLIC    ECODE    ---       LSM6DSMDisablePedometer?
      00FE30B0H   PUBLIC    ECODE    ---       IMUupdate?
      00000021H   PUBLIC    IDATA    FLOAT     exInt
      00000025H   PUBLIC    IDATA    FLOAT     q0
      00000A3CH   PUBLIC    EDATA    FLOAT     eyInt
      00000A40H   PUBLIC    EDATA    FLOAT     ezInt
      00000A44H   PUBLIC    EDATA    FLOAT     q1
      00000A48H   PUBLIC    EDATA    FLOAT     q2
      00000A4CH   PUBLIC    EDATA    FLOAT     q3
      00000A50H   SYMBOL    EDATA    BYTE      embedded_func_usage

      00FE2DE0H   BLOCK     ECODE    ---       LVL=0
      R7          REGSYM    ---      BYTE      addr
      R6          REGSYM    ---      BYTE      dat
      00FE2DE0H   LINE      ECODE    ---       #10
      00FE2DE4H   LINE      ECODE    ---       #12
      ---         BLOCKEND  ---      ---       LVL=0

      00FE2DEAH   BLOCK     ECODE    ---       LVL=0
      R10         REGSYM    ---      BYTE      addr
      00FE2DECH   BLOCK     ECODE    NEAR LAB  LVL=1
      R11         REGSYM    ---      BYTE      temp
      ---         BLOCKEND  ---      ---       LVL=1
      00FE2DEAH   LINE      ECODE    ---       #14
      00FE2DECH   LINE      ECODE    ---       #15
      00FE2DECH   LINE      ECODE    ---       #17
      00FE2DF4H   LINE      ECODE    ---       #18
      00FE2DF4H   LINE      ECODE    ---       #19
      ---         BLOCKEND  ---      ---       LVL=0

      00FE2DF4H   BLOCK     ECODE    ---       LVL=0
      R13         REGSYM    ---      BYTE      addr
      R14         REGSYM    ---      BYTE      dat
      R15         REGSYM    ---      BYTE      SC
      00FE2DFEH   BLOCK     ECODE    NEAR LAB  LVL=1
      R7          REGSYM    ---      BYTE      temp
      ---         BLOCKEND  ---      ---       LVL=1
      00FE2DF4H   LINE      ECODE    ---       #20
      00FE2DFEH   LINE      ECODE    ---       #21
      00FE2DFEH   LINE      ECODE    ---       #23
      00FE2E04H   LINE      ECODE    ---       #24
      00FE2E09H   LINE      ECODE    ---       #25
      00FE2E0DH   LINE      ECODE    ---       #26
      00FE2E11H   LINE      ECODE    ---       #27
      00FE2E17H   LINE      ECODE    ---       #28
      00FE2E1DH   LINE      ECODE    ---       #29
      ---         BLOCKEND  ---      ---       LVL=0

      00FE2E22H   BLOCK     ECODE    ---       LVL=0
      R11         REGSYM    ---      BYTE      temp
      00FE2E22H   LINE      ECODE    ---       #30
      00FE2E22H   LINE      ECODE    ---       #31
L251 LINKER/LOCATER V4.66.93.0                                                        08/24/2022  19:19:43  PAGE 93


      00FE2E22H   LINE      ECODE    ---       #33
      00FE2E28H   LINE      ECODE    ---       #34
      00FE2E2BH   LINE      ECODE    ---       #35
      00FE2E2EH   LINE      ECODE    ---       #37
      00FE2E2FH   LINE      ECODE    ---       #38
      ---         BLOCKEND  ---      ---       LVL=0

      00FE2E30H   BLOCK     ECODE    ---       LVL=0
      R6          REGSYM    ---      BYTE      acc_odr
      R10         REGSYM    ---      BYTE      acc_scale
      00FE2E30H   LINE      ECODE    ---       #39
      00FE2E32H   LINE      ECODE    ---       #41
      ---         BLOCKEND  ---      ---       LVL=0

      00FE2E3AH   BLOCK     ECODE    ---       LVL=0
      R6          REGSYM    ---      BYTE      gyr_odr
      R10         REGSYM    ---      BYTE      gyr_scale
      00FE2E3AH   LINE      ECODE    ---       #43
      00FE2E3CH   LINE      ECODE    ---       #45
      ---         BLOCKEND  ---      ---       LVL=0

      00FE2E44H   BLOCK     ECODE    ---       LVL=0
      REG=3       REGSYM    ---      ---       p
      00FE2E48H   BLOCK     ECODE    NEAR LAB  LVL=1
      000007A7H   SYMBOL    EDATA    ---       buf
      ---         BLOCKEND  ---      ---       LVL=1
      00FE2E44H   LINE      ECODE    ---       #47
      00FE2E48H   LINE      ECODE    ---       #48
      00FE2E48H   LINE      ECODE    ---       #50
      00FE2E58H   LINE      ECODE    ---       #51
      00FE2E62H   LINE      ECODE    ---       #52
      00FE2E69H   LINE      ECODE    ---       #53
      00FE2E73H   LINE      ECODE    ---       #54
      00FE2E7DH   LINE      ECODE    ---       #55
      00FE2E85H   LINE      ECODE    ---       #56
      00FE2E8FH   LINE      ECODE    ---       #57
      ---         BLOCKEND  ---      ---       LVL=0

      00FE2E92H   BLOCK     ECODE    ---       LVL=0
      00FE2E92H   LINE      ECODE    ---       #68
      00FE2E92H   LINE      ECODE    ---       #70
      00FE2E9EH   LINE      ECODE    ---       #71
      ---         BLOCKEND  ---      ---       LVL=0

      00FE2EA6H   BLOCK     ECODE    ---       LVL=0
      00FE2EA6H   LINE      ECODE    ---       #73
      00FE2EA6H   LINE      ECODE    ---       #75
      ---         BLOCKEND  ---      ---       LVL=0

      00FE2EB2H   BLOCK     ECODE    ---       LVL=0
      00FE2EB2H   LINE      ECODE    ---       #77
      00FE2EB2H   LINE      ECODE    ---       #79
      ---         BLOCKEND  ---      ---       LVL=0

      00FE2EBDH   BLOCK     ECODE    ---       LVL=0
      WR0         REGSYM    ---      INT       angle
      WR2         REGSYM    ---      INT       delay
      00FE2EC3H   BLOCK     ECODE    NEAR LAB  LVL=1
      R14         REGSYM    ---      BYTE      set_delay
      R15         REGSYM    ---      BYTE      set_angle
      ---         BLOCKEND  ---      ---       LVL=1
      00FE2EBDH   LINE      ECODE    ---       #81
      00FE2EC3H   LINE      ECODE    ---       #82
      00FE2EC3H   LINE      ECODE    ---       #85
      00FE2ECFH   LINE      ECODE    ---       #86
L251 LINKER/LOCATER V4.66.93.0                                                        08/24/2022  19:19:43  PAGE 94


      00FE2F01H   LINE      ECODE    ---       #87
      00FE2F07H   LINE      ECODE    ---       #88
      00FE2F10H   LINE      ECODE    ---       #89
      00FE2F14H   LINE      ECODE    ---       #90
      00FE2F1CH   LINE      ECODE    ---       #91
      00FE2F20H   LINE      ECODE    ---       #92
      00FE2F29H   LINE      ECODE    ---       #93
      00FE2F31H   LINE      ECODE    ---       #94
      00FE2F39H   LINE      ECODE    ---       #95
      00FE2F42H   LINE      ECODE    ---       #96
      00FE2F4AH   LINE      ECODE    ---       #97
      00FE2F56H   LINE      ECODE    ---       #99
      00FE2F62H   LINE      ECODE    ---       #100
      00FE2F6CH   LINE      ECODE    ---       #101
      ---         BLOCKEND  ---      ---       LVL=0

      00FE2F6FH   BLOCK     ECODE    ---       LVL=0
      00FE2F6FH   LINE      ECODE    ---       #116
      00FE2F6FH   LINE      ECODE    ---       #118
      00FE2F7AH   LINE      ECODE    ---       #119
      00FE2F85H   LINE      ECODE    ---       #120
      00FE2F8FH   LINE      ECODE    ---       #121
      00FE2F91H   LINE      ECODE    ---       #123
      00FE2F95H   LINE      ECODE    ---       #124
      00FE2F9DH   LINE      ECODE    ---       #125
      ---         BLOCKEND  ---      ---       LVL=0

      00FE2F9EH   BLOCK     ECODE    ---       LVL=0
      WR12        REGSYM    ---      WORD      debounce_time
      R15         REGSYM    ---      BYTE      debounce_step
      00FE2F9EH   LINE      ECODE    ---       #144
      00FE2FA6H   LINE      ECODE    ---       #146
      00FE2FAFH   LINE      ECODE    ---       #147
      00FE2FB8H   LINE      ECODE    ---       #148
      00FE2FD8H   LINE      ECODE    ---       #149
      00FE2FE0H   LINE      ECODE    ---       #150
      00FE2FE6H   LINE      ECODE    ---       #151
      00FE2FEFH   LINE      ECODE    ---       #152
      00FE2FFBH   LINE      ECODE    ---       #154
      00FE3005H   LINE      ECODE    ---       #155
      ---         BLOCKEND  ---      ---       LVL=0

      00FE300AH   BLOCK     ECODE    ---       LVL=0
      00FE300CH   BLOCK     ECODE    NEAR LAB  LVL=1
      R15         REGSYM    ---      BYTE      tempL
      R7          REGSYM    ---      BYTE      tempH
      ---         BLOCKEND  ---      ---       LVL=1
      00FE300AH   LINE      ECODE    ---       #156
      00FE300CH   LINE      ECODE    ---       #157
      00FE300CH   LINE      ECODE    ---       #159
      00FE3014H   LINE      ECODE    ---       #160
      00FE301AH   LINE      ECODE    ---       #161
      00FE3022H   LINE      ECODE    ---       #162
      ---         BLOCKEND  ---      ---       LVL=0

      00FE3025H   BLOCK     ECODE    ---       LVL=0
      00FE3025H   LINE      ECODE    ---       #163
      00FE3025H   LINE      ECODE    ---       #165
      00FE3031H   LINE      ECODE    ---       #166
      00FE3039H   LINE      ECODE    ---       #167
      ---         BLOCKEND  ---      ---       LVL=0

      00FE3044H   BLOCK     ECODE    ---       LVL=0
      00FE3044H   LINE      ECODE    ---       #169
      00FE3044H   LINE      ECODE    ---       #171
L251 LINKER/LOCATER V4.66.93.0                                                        08/24/2022  19:19:43  PAGE 95


      00FE304FH   LINE      ECODE    ---       #172
      00FE3059H   LINE      ECODE    ---       #173
      00FE305BH   LINE      ECODE    ---       #175
      00FE305FH   LINE      ECODE    ---       #176
      00FE3067H   LINE      ECODE    ---       #177
      ---         BLOCKEND  ---      ---       LVL=0

      00FE3068H   BLOCK     ECODE    ---       LVL=0
      00FE306AH   BLOCK     ECODE    NEAR LAB  LVL=1
      WR14        REGSYM    ---      WORD      time_out
      ---         BLOCKEND  ---      ---       LVL=1
      00FE3068H   LINE      ECODE    ---       #181
      00FE306AH   LINE      ECODE    ---       #182
      00FE306AH   LINE      ECODE    ---       #184
      00FE3070H   LINE      ECODE    ---       #186
      00FE3074H   LINE      ECODE    ---       #189
      00FE3076H   LINE      ECODE    ---       #191
      00FE307EH   LINE      ECODE    ---       #194
      00FE3086H   LINE      ECODE    ---       #195
      00FE3089H   LINE      ECODE    ---       #196
      00FE308FH   LINE      ECODE    ---       #199
      00FE3093H   LINE      ECODE    ---       #200
      00FE309FH   LINE      ECODE    ---       #201
      00FE30ABH   LINE      ECODE    ---       #210
      00FE30ADH   LINE      ECODE    ---       #211
      ---         BLOCKEND  ---      ---       LVL=0

      00FE30B0H   BLOCK     ECODE    ---       LVL=0
      REG=3       REGSYM    ---      ---       p
      00FE30B4H   BLOCK     ECODE    NEAR LAB  LVL=1
      DR28        REGSYM    ---      FLOAT     norm
      00000012H   SYMBOL    IDATA    FLOAT     ax
      00000A63H   SYMBOL    EDATA    FLOAT     ay
      00000A67H   SYMBOL    EDATA    FLOAT     az
      00000016H   SYMBOL    IDATA    FLOAT     gx
      00000A6BH   SYMBOL    EDATA    FLOAT     gy
      00000A6FH   SYMBOL    EDATA    FLOAT     gz
      0000001AH   SYMBOL    IDATA    FLOAT     vx
      DR20        REGSYM    ---      FLOAT     vy
      DR24        REGSYM    ---      FLOAT     vz
      DR28        REGSYM    ---      FLOAT     ex
      DR16        REGSYM    ---      FLOAT     ey
      DR20        REGSYM    ---      FLOAT     ez
      ---         BLOCKEND  ---      ---       LVL=1
      00FE30B0H   LINE      ECODE    ---       #219
      00FE30B4H   LINE      ECODE    ---       #220
      00FE30B4H   LINE      ECODE    ---       #227
      00FE30C9H   LINE      ECODE    ---       #228
      00FE30D7H   LINE      ECODE    ---       #229
      00FE30E5H   LINE      ECODE    ---       #231
      00FE3116H   LINE      ECODE    ---       #232
      00FE312FH   LINE      ECODE    ---       #233
      00FE3149H   LINE      ECODE    ---       #235
      00FE3180H   LINE      ECODE    ---       #236
      00FE3198H   LINE      ECODE    ---       #237
      00FE31A6H   LINE      ECODE    ---       #238
      00FE31B4H   LINE      ECODE    ---       #244
      00FE31F1H   LINE      ECODE    ---       #245
      00FE3217H   LINE      ECODE    ---       #246
      00FE325BH   LINE      ECODE    ---       #248
      00FE3279H   LINE      ECODE    ---       #249
      00FE32A7H   LINE      ECODE    ---       #250
      00FE32D5H   LINE      ECODE    ---       #252
      00FE32F1H   LINE      ECODE    ---       #253
      00FE3305H   LINE      ECODE    ---       #254
L251 LINKER/LOCATER V4.66.93.0                                                        08/24/2022  19:19:43  PAGE 96


      00FE3319H   LINE      ECODE    ---       #256
      00FE3347H   LINE      ECODE    ---       #257
      00FE3363H   LINE      ECODE    ---       #258
      00FE337FH   LINE      ECODE    ---       #260
      00FE33DAH   LINE      ECODE    ---       #261
      00FE3426H   LINE      ECODE    ---       #262
      00FE3468H   LINE      ECODE    ---       #263
      00FE34B2H   LINE      ECODE    ---       #265
      00FE34F6H   LINE      ECODE    ---       #266
      00FE3504H   LINE      ECODE    ---       #267
      00FE3512H   LINE      ECODE    ---       #268
      00FE3520H   LINE      ECODE    ---       #269
      00FE352EH   LINE      ECODE    ---       #271
      00FE3570H   LINE      ECODE    ---       #272
      00FE35B2H   LINE      ECODE    ---       #273
      00FE3640H   LINE      ECODE    ---       #274
      ---         BLOCKEND  ---      ---       LVL=0

      ---         MODULE    ---      ---       QMC5883L
      00FE87F2H   PUBLIC    ECODE    ---       QMC5883LCheckConnection?
      00FE8802H   PUBLIC    ECODE    ---       QMC5883LRead?
      00FE892EH   PUBLIC    ECODE    ---       QMC5883LInit?
      00FE88AAH   PUBLIC    ECODE    ---       QMC5883LSetCaliValue?
      00FE890BH   PUBLIC    ECODE    ---       QMC5883LSetMode?
      00FE8991H   PUBLIC    ECODE    ---       QMC5883LCalYaw?
      00FE87E8H   PUBLIC    ECODE    ---       QMC5883L_Read_Byte?
      00FE87DEH   PUBLIC    ECODE    ---       QMC5883L_Write_Byte?
      00FE88F0H   PUBLIC    ECODE    ---       QMC5883LClearCaliValue?
      00000A51H   PUBLIC    EDATA    BYTE      MOD
      00000A52H   PUBLIC    EDATA    BYTE      ODR
      00000A53H   PUBLIC    EDATA    BYTE      RNG
      00000A54H   PUBLIC    EDATA    BYTE      OSR
      00000A55H   PUBLIC    EDATA    INT       mag_x_offset
      00000A57H   PUBLIC    EDATA    FLOAT     mag_y_scale
      00000A5BH   PUBLIC    EDATA    INT       mag_y_offset
      00000A5DH   PUBLIC    EDATA    FLOAT     mag_z_scale
      00000A61H   PUBLIC    EDATA    INT       mag_z_offset
      000007A7H   PUBLIC    EDATA    BYTE      ?QMC5883LCalYaw??BYTE

      00FE87DEH   BLOCK     ECODE    ---       LVL=0
      R7          REGSYM    ---      BYTE      addr
      R6          REGSYM    ---      BYTE      dat
      00FE87DEH   LINE      ECODE    ---       #31
      00FE87E2H   LINE      ECODE    ---       #33
      ---         BLOCKEND  ---      ---       LVL=0

      00FE87E8H   BLOCK     ECODE    ---       LVL=0
      R10         REGSYM    ---      BYTE      addr
      00FE87E8H   LINE      ECODE    ---       #40
      00FE87EAH   LINE      ECODE    ---       #42
      ---         BLOCKEND  ---      ---       LVL=0

      00FE87F2H   BLOCK     ECODE    ---       LVL=0
      00FE87F2H   LINE      ECODE    ---       #49
      00FE87F2H   LINE      ECODE    ---       #51
      00FE87FDH   LINE      ECODE    ---       #52
      00FE87FFH   LINE      ECODE    ---       #54
      00FE8801H   LINE      ECODE    ---       #55
      ---         BLOCKEND  ---      ---       LVL=0

      00FE8802H   BLOCK     ECODE    ---       LVL=0
      REG=3       REGSYM    ---      ---       buf
      00FE8806H   BLOCK     ECODE    NEAR LAB  LVL=1
      000007ABH   SYMBOL    EDATA    ---       temp
      ---         BLOCKEND  ---      ---       LVL=1
L251 LINKER/LOCATER V4.66.93.0                                                        08/24/2022  19:19:43  PAGE 97


      00FE8802H   LINE      ECODE    ---       #61
      00FE8806H   LINE      ECODE    ---       #62
      00FE8806H   LINE      ECODE    ---       #64
      00FE8815H   LINE      ECODE    ---       #65
      00FE8824H   LINE      ECODE    ---       #66
      00FE8834H   LINE      ECODE    ---       #67
      00FE8844H   LINE      ECODE    ---       #68
      00FE8850H   LINE      ECODE    ---       #69
      00FE8857H   LINE      ECODE    ---       #70
      00FE8865H   LINE      ECODE    ---       #71
      00FE8873H   LINE      ECODE    ---       #72
      00FE888DH   LINE      ECODE    ---       #73
      00FE88A7H   LINE      ECODE    ---       #74
      ---         BLOCKEND  ---      ---       LVL=0

      00FE88AAH   BLOCK     ECODE    ---       LVL=0
      REG=7       REGSYM    ---      ---       c
      00FE88AAH   LINE      ECODE    ---       #80
      00FE88ACH   LINE      ECODE    ---       #82
      00FE88B3H   LINE      ECODE    ---       #83
      00FE88BBH   LINE      ECODE    ---       #84
      00FE88C3H   LINE      ECODE    ---       #85
      00FE88DDH   LINE      ECODE    ---       #86
      00FE88EFH   LINE      ECODE    ---       #87
      ---         BLOCKEND  ---      ---       LVL=0

      00FE88F0H   BLOCK     ECODE    ---       LVL=0
      00FE88F0H   LINE      ECODE    ---       #93
      00FE88F0H   LINE      ECODE    ---       #95
      00FE88F6H   LINE      ECODE    ---       #96
      00FE88FAH   LINE      ECODE    ---       #97
      00FE88FEH   LINE      ECODE    ---       #98
      00FE8906H   LINE      ECODE    ---       #99
      00FE890AH   LINE      ECODE    ---       #100
      ---         BLOCKEND  ---      ---       LVL=0

      00FE890BH   BLOCK     ECODE    ---       LVL=0
      R15         REGSYM    ---      BYTE      mode
      00FE890BH   LINE      ECODE    ---       #107
      00FE890FH   LINE      ECODE    ---       #109
      00FE8919H   LINE      ECODE    ---       #110
      00FE891FH   LINE      ECODE    ---       #111
      00FE892BH   LINE      ECODE    ---       #112
      ---         BLOCKEND  ---      ---       LVL=0

      00FE892EH   BLOCK     ECODE    ---       LVL=0
      00FE8930H   BLOCK     ECODE    NEAR LAB  LVL=1
      R15         REGSYM    ---      BYTE      time_out
      ---         BLOCKEND  ---      ---       LVL=1
      00FE892EH   LINE      ECODE    ---       #119
      00FE8930H   LINE      ECODE    ---       #120
      00FE8930H   LINE      ECODE    ---       #121
      00FE8933H   LINE      ECODE    ---       #122
      00FE8935H   LINE      ECODE    ---       #124
      00FE893DH   LINE      ECODE    ---       #125
      00FE8944H   LINE      ECODE    ---       #126
      00FE8947H   LINE      ECODE    ---       #127
      00FE894DH   LINE      ECODE    ---       #128
      00FE897AH   LINE      ECODE    ---       #129
      00FE8983H   LINE      ECODE    ---       #130
      00FE898CH   LINE      ECODE    ---       #131
      00FE898EH   LINE      ECODE    ---       #132
      ---         BLOCKEND  ---      ---       LVL=0

      00FE8991H   BLOCK     ECODE    ---       LVL=0
L251 LINKER/LOCATER V4.66.93.0                                                        08/24/2022  19:19:43  PAGE 98


      000007ABH   SYMBOL    EDATA    ---       mag_data
      DR8         REGSYM    ---      FLOAT     ax
      000007AFH   SYMBOL    EDATA    FLOAT     ay
      00FE8997H   BLOCK     ECODE    NEAR LAB  LVL=1
      DR4         REGSYM    ---      FLOAT     Yaw
      000007B3H   SYMBOL    EDATA    FLOAT     RadX
      000007B7H   SYMBOL    EDATA    FLOAT     RadY
      000007BBH   SYMBOL    EDATA    FLOAT     Xh
      DR4         REGSYM    ---      FLOAT     Yh
      ---         BLOCKEND  ---      ---       LVL=1
      00FE8991H   LINE      ECODE    ---       #139
      00FE8997H   LINE      ECODE    ---       #140
      00FE8997H   LINE      ECODE    ---       #142
      00FE89ADH   LINE      ECODE    ---       #143
      00FE89BFH   LINE      ECODE    ---       #144
      00FE8A44H   LINE      ECODE    ---       #145
      00FE8A84H   LINE      ECODE    ---       #146
      00FE8AAAH   LINE      ECODE    ---       #147
      00FE8AAAH   LINE      ECODE    ---       #148
      ---         BLOCKEND  ---      ---       LVL=0

      ---         MODULE    ---      ---       Ellipsoid fitting
      00FE5813H   PUBLIC    ECODE    ---       ResetMatrix?
      00FE59F2H   PUBLIC    ECODE    ---       MoveBiggestElement_to_Top?
      00FE5800H   PUBLIC    ECODE    ---       Abs?
      00FE58E1H   PUBLIC    ECODE    ---       CalcData_Input_average?
      00FE59A1H   PUBLIC    ECODE    ---       Row2_add_kRow1?
      00FE5B83H   PUBLIC    ECODE    ---       Ellipsoid_fitting_Process?
      00FE5A61H   PUBLIC    ECODE    ---       Matrix_GaussElimination?
      00FE5927H   PUBLIC    ECODE    ---       Row2_swop_Row1?
      00FE5AFBH   PUBLIC    ECODE    ---       Matrix_Solve?
      00FE5841H   PUBLIC    ECODE    ---       CalcData_Input?
      00FE5ACDH   PUBLIC    ECODE    ---       Matrix_RowSimplify?
      00FE5969H   PUBLIC    ECODE    ---       k_muiltply_Row?
      0000060BH   PUBLIC    EDATA    ---       final_solve
      00000623H   PUBLIC    EDATA    INT       N
      00000625H   PUBLIC    EDATA    ---       m_matrix
      000006CDH   PUBLIC    EDATA    ---       m_result
      0000079FH   PUBLIC    EDATA    BYTE      ?CalcData_Input??BYTE

      00FE5800H   BLOCK     ECODE    ---       LVL=0
      DR28        REGSYM    ---      FLOAT     a
      00FE5800H   LINE      ECODE    ---       #13
      00FE5802H   LINE      ECODE    ---       #15
      00FE5812H   LINE      ECODE    ---       #16
      ---         BLOCKEND  ---      ---       LVL=0

      00FE5813H   BLOCK     ECODE    ---       LVL=0
      R7          REGSYM    ---      BYTE      row
      R6          REGSYM    ---      BYTE      column
      00FE5813H   LINE      ECODE    ---       #19
      00FE5813H   LINE      ECODE    ---       #20
      00FE5813H   LINE      ECODE    ---       #22
      00FE5815H   LINE      ECODE    ---       #24
      00FE5817H   LINE      ECODE    ---       #25
      00FE5833H   LINE      ECODE    ---       #26
      00FE583AH   LINE      ECODE    ---       #27
      00FE5840H   LINE      ECODE    ---       #28
      ---         BLOCKEND  ---      ---       LVL=0

      00FE5841H   BLOCK     ECODE    ---       LVL=0
      DR24        REGSYM    ---      FLOAT     x
      DR28        REGSYM    ---      FLOAT     y
      000007A7H   SYMBOL    EDATA    FLOAT     z
      00FE5847H   BLOCK     ECODE    NEAR LAB  LVL=1
L251 LINKER/LOCATER V4.66.93.0                                                        08/24/2022  19:19:43  PAGE 99


      000007ABH   SYMBOL    EDATA    ---       V
      R15         REGSYM    ---      BYTE      row
      R14         REGSYM    ---      BYTE      column
      ---         BLOCKEND  ---      ---       LVL=1
      00FE5841H   LINE      ECODE    ---       #31
      00FE5847H   LINE      ECODE    ---       #32
      00FE5847H   LINE      ECODE    ---       #35
      00FE5851H   LINE      ECODE    ---       #36
      00FE585BH   LINE      ECODE    ---       #37
      00FE586BH   LINE      ECODE    ---       #38
      00FE586FH   LINE      ECODE    ---       #39
      00FE5873H   LINE      ECODE    ---       #40
      00FE5877H   LINE      ECODE    ---       #41
      00FE5881H   LINE      ECODE    ---       #42
      00FE5891H   LINE      ECODE    ---       #44
      00FE5893H   LINE      ECODE    ---       #46
      00FE5895H   LINE      ECODE    ---       #48
      00FE58D0H   LINE      ECODE    ---       #49
      00FE58D7H   LINE      ECODE    ---       #50
      00FE58DEH   LINE      ECODE    ---       #52
      ---         BLOCKEND  ---      ---       LVL=0

      00FE58E1H   BLOCK     ECODE    ---       LVL=0
      00FE58E3H   BLOCK     ECODE    NEAR LAB  LVL=1
      R15         REGSYM    ---      BYTE      row
      R14         REGSYM    ---      BYTE      column
      ---         BLOCKEND  ---      ---       LVL=1
      00FE58E1H   LINE      ECODE    ---       #55
      00FE58E3H   LINE      ECODE    ---       #56
      00FE58E3H   LINE      ECODE    ---       #58
      00FE58E5H   LINE      ECODE    ---       #59
      00FE58E7H   LINE      ECODE    ---       #60
      00FE5924H   LINE      ECODE    ---       #62
      ---         BLOCKEND  ---      ---       LVL=0

      00FE5927H   BLOCK     ECODE    ---       LVL=0
      WR30        REGSYM    ---      INT       row1
      WR8         REGSYM    ---      INT       row2
      00FE592BH   BLOCK     ECODE    NEAR LAB  LVL=1
      DR0         REGSYM    ---      FLOAT     tmp
      R7          REGSYM    ---      BYTE      column
      ---         BLOCKEND  ---      ---       LVL=1
      00FE5927H   LINE      ECODE    ---       #82
      00FE592BH   LINE      ECODE    ---       #83
      00FE592BH   LINE      ECODE    ---       #84
      00FE592BH   LINE      ECODE    ---       #86
      00FE592DH   LINE      ECODE    ---       #88
      00FE5945H   LINE      ECODE    ---       #89
      00FE5959H   LINE      ECODE    ---       #90
      00FE5961H   LINE      ECODE    ---       #91
      00FE5968H   LINE      ECODE    ---       #92
      ---         BLOCKEND  ---      ---       LVL=0

      00FE5969H   BLOCK     ECODE    ---       LVL=0
      DR24        REGSYM    ---      FLOAT     k
      WR22        REGSYM    ---      INT       row
      00FE596FH   BLOCK     ECODE    NEAR LAB  LVL=1
      R15         REGSYM    ---      BYTE      column
      ---         BLOCKEND  ---      ---       LVL=1
      00FE5969H   LINE      ECODE    ---       #95
      00FE596FH   LINE      ECODE    ---       #96
      00FE596FH   LINE      ECODE    ---       #98
      00FE5971H   LINE      ECODE    ---       #99
      00FE599EH   LINE      ECODE    ---       #100
      ---         BLOCKEND  ---      ---       LVL=0
L251 LINKER/LOCATER V4.66.93.0                                                        08/24/2022  19:19:43  PAGE 100



      00FE59A1H   BLOCK     ECODE    ---       LVL=0
      DR24        REGSYM    ---      FLOAT     k
      WR20        REGSYM    ---      INT       row1
      WR22        REGSYM    ---      INT       row2
      00FE59ABH   BLOCK     ECODE    NEAR LAB  LVL=1
      R15         REGSYM    ---      BYTE      column
      ---         BLOCKEND  ---      ---       LVL=1
      00FE59A1H   LINE      ECODE    ---       #103
      00FE59ABH   LINE      ECODE    ---       #104
      00FE59ABH   LINE      ECODE    ---       #106
      00FE59ADH   LINE      ECODE    ---       #107
      00FE59EDH   LINE      ECODE    ---       #108
      ---         BLOCKEND  ---      ---       LVL=0

      00FE59F2H   BLOCK     ECODE    ---       LVL=0
      000007C7H   SYMBOL    EDATA    INT       k
      00FE59F8H   BLOCK     ECODE    NEAR LAB  LVL=1
      000007C9H   SYMBOL    EDATA    INT       row
      ---         BLOCKEND  ---      ---       LVL=1
      00FE59F2H   LINE      ECODE    ---       #112
      00FE59F8H   LINE      ECODE    ---       #113
      00FE59F8H   LINE      ECODE    ---       #114
      00FE59F8H   LINE      ECODE    ---       #115
      00FE59FAH   LINE      ECODE    ---       #117
      00FE5A3EH   LINE      ECODE    ---       #119
      00FE5A4AH   LINE      ECODE    ---       #120
      00FE5A5EH   LINE      ECODE    ---       #122
      ---         BLOCKEND  ---      ---       LVL=0

      00FE5A61H   BLOCK     ECODE    ---       LVL=0
      00FE5A63H   BLOCK     ECODE    NEAR LAB  LVL=1
      000007C3H   SYMBOL    EDATA    FLOAT     k
      R15         REGSYM    ---      BYTE      cnt
      R14         REGSYM    ---      BYTE      row
      ---         BLOCKEND  ---      ---       LVL=1
      00FE5A61H   LINE      ECODE    ---       #125
      00FE5A63H   LINE      ECODE    ---       #126
      00FE5A63H   LINE      ECODE    ---       #127
      00FE5A63H   LINE      ECODE    ---       #129
      00FE5A65H   LINE      ECODE    ---       #132
      00FE5A6BH   LINE      ECODE    ---       #133
      00FE5A7BH   LINE      ECODE    ---       #134
      00FE5A7FH   LINE      ECODE    ---       #136
      00FE5A87H   LINE      ECODE    ---       #138
      00FE5AB3H   LINE      ECODE    ---       #139
      00FE5ABBH   LINE      ECODE    ---       #140
      00FE5AC2H   LINE      ECODE    ---       #142
      00FE5AC9H   LINE      ECODE    ---       #143
      00FE5ACAH   LINE      ECODE    ---       #144
      ---         BLOCKEND  ---      ---       LVL=0

      00FE5ACDH   BLOCK     ECODE    ---       LVL=0
      00FE5ACFH   BLOCK     ECODE    NEAR LAB  LVL=1
      000007C3H   SYMBOL    EDATA    FLOAT     k
      R15         REGSYM    ---      BYTE      row
      ---         BLOCKEND  ---      ---       LVL=1
      00FE5ACDH   LINE      ECODE    ---       #147
      00FE5ACFH   LINE      ECODE    ---       #148
      00FE5ACFH   LINE      ECODE    ---       #149
      00FE5ACFH   LINE      ECODE    ---       #151
      00FE5AD1H   LINE      ECODE    ---       #153
      00FE5AEBH   LINE      ECODE    ---       #154
      00FE5AF1H   LINE      ECODE    ---       #155
      00FE5AF8H   LINE      ECODE    ---       #157
L251 LINKER/LOCATER V4.66.93.0                                                        08/24/2022  19:19:43  PAGE 101


      ---         BLOCKEND  ---      ---       LVL=0

      00FE5AFBH   BLOCK     ECODE    ---       LVL=0
      REG=6       REGSYM    ---      ---       solve
      00FE5AFFH   BLOCK     ECODE    NEAR LAB  LVL=1
      DR28        REGSYM    ---      LONG      row
      R15         REGSYM    ---      BYTE      column
      ---         BLOCKEND  ---      ---       LVL=1
      00FE5AFBH   LINE      ECODE    ---       #160
      00FE5AFFH   LINE      ECODE    ---       #161
      00FE5AFFH   LINE      ECODE    ---       #164
      00FE5B03H   LINE      ECODE    ---       #166
      00FE5B22H   LINE      ECODE    ---       #167
      00FE5B27H   LINE      ECODE    ---       #168
      00FE5B78H   LINE      ECODE    ---       #169
      00FE5B80H   LINE      ECODE    ---       #173
      ---         BLOCKEND  ---      ---       LVL=0

      00FE5B83H   BLOCK     ECODE    ---       LVL=0
      REG=3       REGSYM    ---      ---       dat
      00FE5B87H   BLOCK     ECODE    NEAR LAB  LVL=1
      000007A7H   SYMBOL    EDATA    FLOAT     a
      000007ABH   SYMBOL    EDATA    FLOAT     b
      DR4         REGSYM    ---      FLOAT     c
      DR16        REGSYM    ---      FLOAT     d
      DR24        REGSYM    ---      FLOAT     e
      DR28        REGSYM    ---      FLOAT     f
      000007AFH   SYMBOL    EDATA    FLOAT     X0
      000007B3H   SYMBOL    EDATA    FLOAT     Y0
      000007B7H   SYMBOL    EDATA    FLOAT     Z0
      000007BBH   SYMBOL    EDATA    FLOAT     A
      000007BFH   SYMBOL    EDATA    FLOAT     B
      DR28        REGSYM    ---      FLOAT     C
      ---         BLOCKEND  ---      ---       LVL=1
      00FE5B83H   LINE      ECODE    ---       #176
      00FE5B87H   LINE      ECODE    ---       #177
      00FE5B87H   LINE      ECODE    ---       #178
      00FE5B87H   LINE      ECODE    ---       #179
      00FE5B87H   LINE      ECODE    ---       #194
      00FE5B8BH   LINE      ECODE    ---       #196
      00FE5B91H   LINE      ECODE    ---       #198
      00FE5B9DH   LINE      ECODE    ---       #199
      00FE5BA1H   LINE      ECODE    ---       #200
      00FE5BA1H   LINE      ECODE    ---       #203
      00FE5BA5H   LINE      ECODE    ---       #204
      00FE5BADH   LINE      ECODE    ---       #205
      00FE5BB5H   LINE      ECODE    ---       #206
      00FE5BBDH   LINE      ECODE    ---       #207
      00FE5BC1H   LINE      ECODE    ---       #208
      00FE5BC5H   LINE      ECODE    ---       #209
      00FE5BC9H   LINE      ECODE    ---       #210
      00FE5BCDH   LINE      ECODE    ---       #212
      00FE5BE1H   LINE      ECODE    ---       #213
      00FE5BFBH   LINE      ECODE    ---       #214
      00FE5C17H   LINE      ECODE    ---       #215
      00FE5C65H   LINE      ECODE    ---       #216
      00FE5C7BH   LINE      ECODE    ---       #217
      00FE5C8FH   LINE      ECODE    ---       #219
      00FE5C9AH   LINE      ECODE    ---       #220
      00FE5CA6H   LINE      ECODE    ---       #221
      00FE5CB2H   LINE      ECODE    ---       #222
      00FE5CBEH   LINE      ECODE    ---       #223
      00FE5CCAH   LINE      ECODE    ---       #224
      00FE5CD2H   LINE      ECODE    ---       #230
      00FE5CD4H   LINE      ECODE    ---       #231
L251 LINKER/LOCATER V4.66.93.0                                                        08/24/2022  19:19:43  PAGE 102


      00FE5CD4H   LINE      ECODE    ---       #232
      ---         BLOCKEND  ---      ---       LVL=0

      ---         MODULE    ---      ---       BMP390
      00FE52D8H   PUBLIC    ECODE    ---       BMP390ReadByte?
      00FE579BH   PUBLIC    ECODE    ---       BMP390Init?
      00FE55B9H   PUBLIC    ECODE    ---       compensate_pressure?
      00FE574CH   PUBLIC    ECODE    ---       BMP390GetSensorData?
      00FE52EFH   PUBLIC    ECODE    ---       BMP390ReadCompensationParameter?
      00FE52CEH   PUBLIC    ECODE    ---       BMP390WriteByte?
      00FE576EH   PUBLIC    ECODE    ---       BMP390SoftReset?
      00FE5502H   PUBLIC    ECODE    ---       BMP390ReadSensorRawData?
      00FE577FH   PUBLIC    ECODE    ---       BMP390SetMode?
      00FE5563H   PUBLIC    ECODE    ---       compensate_temperature?
      00FE52E2H   PUBLIC    ECODE    ---       BMP390CheckConnection?
      00011596H   PUBLIC    XDATA    DWORD     uncomp_temperature
      0001159AH   PUBLIC    XDATA    DWORD     uncomp_pressure
      00011595H   SYMBOL    XDATA    BYTE      BMP390_mode
      0001159EH   SYMBOL    XDATA    ---       calib_data

      00FE52CEH   BLOCK     ECODE    ---       LVL=0
      R7          REGSYM    ---      BYTE      addr
      R6          REGSYM    ---      BYTE      dat
      00FE52CEH   LINE      ECODE    ---       #59
      00FE52D2H   LINE      ECODE    ---       #61
      ---         BLOCKEND  ---      ---       LVL=0

      00FE52D8H   BLOCK     ECODE    ---       LVL=0
      R10         REGSYM    ---      BYTE      addr
      00FE52DAH   BLOCK     ECODE    NEAR LAB  LVL=1
      R11         REGSYM    ---      BYTE      temp
      ---         BLOCKEND  ---      ---       LVL=1
      00FE52D8H   LINE      ECODE    ---       #68
      00FE52DAH   LINE      ECODE    ---       #69
      00FE52DAH   LINE      ECODE    ---       #71
      00FE52E2H   LINE      ECODE    ---       #72
      00FE52E2H   LINE      ECODE    ---       #73
      ---         BLOCKEND  ---      ---       LVL=0

      00FE52E2H   BLOCK     ECODE    ---       LVL=0
      00FE52E2H   LINE      ECODE    ---       #79
      00FE52E2H   LINE      ECODE    ---       #81
      00FE52EAH   LINE      ECODE    ---       #82
      00FE52EDH   LINE      ECODE    ---       #84
      00FE52EEH   LINE      ECODE    ---       #85
      ---         BLOCKEND  ---      ---       LVL=0

      00FE52EFH   BLOCK     ECODE    ---       LVL=0
      000007A7H   SYMBOL    EDATA    ---       buf1
      R4          REGSYM    ---      CHAR      int8_temp
      WR4         REGSYM    ---      INT       int16_temp
      WR4         REGSYM    ---      WORD      uint16_temp
      00FE52EFH   LINE      ECODE    ---       #92
      00FE52EFH   LINE      ECODE    ---       #93
      00FE52EFH   LINE      ECODE    ---       #99
      00FE52FFH   LINE      ECODE    ---       #101
      00FE530BH   LINE      ECODE    ---       #102
      00FE5324H   LINE      ECODE    ---       #104
      00FE532EH   LINE      ECODE    ---       #105
      00FE5347H   LINE      ECODE    ---       #107
      00FE534BH   LINE      ECODE    ---       #108
      00FE536DH   LINE      ECODE    ---       #110
      00FE5377H   LINE      ECODE    ---       #111
      00FE539DH   LINE      ECODE    ---       #113
      00FE53A7H   LINE      ECODE    ---       #114
L251 LINKER/LOCATER V4.66.93.0                                                        08/24/2022  19:19:43  PAGE 103


      00FE53C7H   LINE      ECODE    ---       #116
      00FE53CBH   LINE      ECODE    ---       #117
      00FE53EBH   LINE      ECODE    ---       #119
      00FE53EFH   LINE      ECODE    ---       #120
      00FE540FH   LINE      ECODE    ---       #122
      00FE5419H   LINE      ECODE    ---       #123
      00FE5432H   LINE      ECODE    ---       #125
      00FE543CH   LINE      ECODE    ---       #126
      00FE5455H   LINE      ECODE    ---       #128
      00FE5459H   LINE      ECODE    ---       #129
      00FE5473H   LINE      ECODE    ---       #131
      00FE5477H   LINE      ECODE    ---       #132
      00FE5491H   LINE      ECODE    ---       #134
      00FE549BH   LINE      ECODE    ---       #135
      00FE54B7H   LINE      ECODE    ---       #137
      00FE54BBH   LINE      ECODE    ---       #138
      00FE54D7H   LINE      ECODE    ---       #140
      00FE54DBH   LINE      ECODE    ---       #141
      00FE5501H   LINE      ECODE    ---       #142
      ---         BLOCKEND  ---      ---       LVL=0

      00FE5502H   BLOCK     ECODE    ---       LVL=0
      000007A7H   SYMBOL    EDATA    ---       buf
      00FE5502H   LINE      ECODE    ---       #148
      00FE5502H   LINE      ECODE    ---       #149
      00FE5502H   LINE      ECODE    ---       #151
      00FE5512H   LINE      ECODE    ---       #152
      00FE553AH   LINE      ECODE    ---       #153
      00FE5562H   LINE      ECODE    ---       #154
      ---         BLOCKEND  ---      ---       LVL=0

      00FE5563H   BLOCK     ECODE    ---       LVL=0
      DR24        REGSYM    ---      FLOAT     partial_data1
      DR28        REGSYM    ---      FLOAT     partial_data2
      00FE5563H   LINE      ECODE    ---       #159
      00FE5563H   LINE      ECODE    ---       #160
      00FE5563H   LINE      ECODE    ---       #164
      00FE5582H   LINE      ECODE    ---       #165
      00FE5592H   LINE      ECODE    ---       #166
      00FE55B8H   LINE      ECODE    ---       #167
      00FE55B8H   LINE      ECODE    ---       #168
      ---         BLOCKEND  ---      ---       LVL=0

      00FE55B9H   BLOCK     ECODE    ---       LVL=0
      00FE55BBH   BLOCK     ECODE    NEAR LAB  LVL=1
      DR4         REGSYM    ---      FLOAT     comp_press
      DR12        REGSYM    ---      FLOAT     partial_data1
      DR16        REGSYM    ---      FLOAT     partial_data2
      DR28        REGSYM    ---      FLOAT     partial_data3
      DR28        REGSYM    ---      FLOAT     partial_data4
      DR20        REGSYM    ---      FLOAT     partial_out1
      DR24        REGSYM    ---      FLOAT     partial_out2
      ---         BLOCKEND  ---      ---       LVL=1
      00FE55B9H   LINE      ECODE    ---       #173
      00FE55BBH   LINE      ECODE    ---       #174
      00FE55BBH   LINE      ECODE    ---       #183
      00FE55D7H   LINE      ECODE    ---       #184
      00FE55F1H   LINE      ECODE    ---       #185
      00FE5611H   LINE      ECODE    ---       #186
      00FE562FH   LINE      ECODE    ---       #188
      00FE5649H   LINE      ECODE    ---       #189
      00FE565BH   LINE      ECODE    ---       #190
      00FE567BH   LINE      ECODE    ---       #191
      00FE56B0H   LINE      ECODE    ---       #193
      00FE56BAH   LINE      ECODE    ---       #194
L251 LINKER/LOCATER V4.66.93.0                                                        08/24/2022  19:19:43  PAGE 104


      00FE56E2H   LINE      ECODE    ---       #195
      00FE56ECH   LINE      ECODE    ---       #196
      00FE573BH   LINE      ECODE    ---       #197
      00FE5749H   LINE      ECODE    ---       #199
      00FE5749H   LINE      ECODE    ---       #200
      ---         BLOCKEND  ---      ---       LVL=0

      00FE574CH   BLOCK     ECODE    ---       LVL=0
      REG=3       REGSYM    ---      ---       p
      00FE574CH   LINE      ECODE    ---       #206
      00FE5750H   LINE      ECODE    ---       #208
      00FE5754H   LINE      ECODE    ---       #209
      00FE575FH   LINE      ECODE    ---       #210
      00FE576BH   LINE      ECODE    ---       #211
      ---         BLOCKEND  ---      ---       LVL=0

      00FE576EH   BLOCK     ECODE    ---       LVL=0
      00FE576EH   LINE      ECODE    ---       #217
      00FE576EH   LINE      ECODE    ---       #219
      00FE5777H   LINE      ECODE    ---       #220
      ---         BLOCKEND  ---      ---       LVL=0

      00FE577FH   BLOCK     ECODE    ---       LVL=0
      R7          REGSYM    ---      BYTE      mode
      00FE577FH   LINE      ECODE    ---       #230
      00FE5781H   LINE      ECODE    ---       #232
      00FE5787H   LINE      ECODE    ---       #233
      ---         BLOCKEND  ---      ---       LVL=0

      00FE579BH   BLOCK     ECODE    ---       LVL=0
      00FE579DH   BLOCK     ECODE    NEAR LAB  LVL=1
      R15         REGSYM    ---      BYTE      time_out
      ---         BLOCKEND  ---      ---       LVL=1
      00FE579BH   LINE      ECODE    ---       #241
      00FE579DH   LINE      ECODE    ---       #242
      00FE579DH   LINE      ECODE    ---       #243
      00FE57A0H   LINE      ECODE    ---       #248
      00FE57A8H   LINE      ECODE    ---       #249
      00FE57AAH   LINE      ECODE    ---       #251
      00FE57B2H   LINE      ECODE    ---       #252
      00FE57B9H   LINE      ECODE    ---       #253
      00FE57BCH   LINE      ECODE    ---       #254
      00FE57C2H   LINE      ECODE    ---       #255
      00FE57C6H   LINE      ECODE    ---       #256
      00FE57CAH   LINE      ECODE    ---       #257
      00FE57E0H   LINE      ECODE    ---       #258
      00FE57E9H   LINE      ECODE    ---       #259
      00FE57F2H   LINE      ECODE    ---       #260
      00FE57FBH   LINE      ECODE    ---       #261
      00FE57FDH   LINE      ECODE    ---       #262
      ---         BLOCKEND  ---      ---       LVL=0

      ---         MODULE    ---      ---       HDC2080
      00FEA921H   PUBLIC    ECODE    ---       HDC2080CheckConnection?
      00FEA917H   PUBLIC    ECODE    ---       HDC2080ReadByte?
      00FEA9F0H   PUBLIC    ECODE    ---       HDC2080Init?
      00FEA90DH   PUBLIC    ECODE    ---       HDC2080WriteByte?
      00FEA941H   PUBLIC    ECODE    ---       HDC2080SetMode?
      00FEA965H   PUBLIC    ECODE    ---       HDC2080GetTH?
      00FEA954H   PUBLIC    ECODE    ---       HDC2080StartConversion?
      00FF0007H   PUBLIC    CODE     BYTE      HRES
      00FF0008H   PUBLIC    CODE     BYTE      TRES
      00FF0009H   PUBLIC    CODE     BYTE      MEAS_CFG

      00FEA90DH   BLOCK     ECODE    ---       LVL=0
L251 LINKER/LOCATER V4.66.93.0                                                        08/24/2022  19:19:43  PAGE 105


      R7          REGSYM    ---      BYTE      addr
      R6          REGSYM    ---      BYTE      dat
      00FEA90DH   LINE      ECODE    ---       #21
      00FEA911H   LINE      ECODE    ---       #23
      ---         BLOCKEND  ---      ---       LVL=0

      00FEA917H   BLOCK     ECODE    ---       LVL=0
      R10         REGSYM    ---      BYTE      addr
      00FEA917H   LINE      ECODE    ---       #25
      00FEA919H   LINE      ECODE    ---       #27
      ---         BLOCKEND  ---      ---       LVL=0

      00FEA921H   BLOCK     ECODE    ---       LVL=0
      00FEA923H   BLOCK     ECODE    NEAR LAB  LVL=1
      R15         REGSYM    ---      BYTE      temp1
      R11         REGSYM    ---      BYTE      temp2
      ---         BLOCKEND  ---      ---       LVL=1
      00FEA921H   LINE      ECODE    ---       #29
      00FEA923H   LINE      ECODE    ---       #30
      00FEA923H   LINE      ECODE    ---       #32
      00FEA92BH   LINE      ECODE    ---       #33
      00FEA931H   LINE      ECODE    ---       #34
      00FEA939H   LINE      ECODE    ---       #35
      00FEA93DH   LINE      ECODE    ---       #37
      00FEA93EH   LINE      ECODE    ---       #38
      ---         BLOCKEND  ---      ---       LVL=0

      00FEA941H   BLOCK     ECODE    ---       LVL=0
      R10         REGSYM    ---      BYTE      mode
      00FEA941H   LINE      ECODE    ---       #50
      00FEA943H   LINE      ECODE    ---       #52
      ---         BLOCKEND  ---      ---       LVL=0

      00FEA954H   BLOCK     ECODE    ---       LVL=0
      R7          REGSYM    ---      BYTE      temp
      00FEA954H   LINE      ECODE    ---       #60
      00FEA954H   LINE      ECODE    ---       #61
      00FEA954H   LINE      ECODE    ---       #63
      00FEA95CH   LINE      ECODE    ---       #64
      00FEA95FH   LINE      ECODE    ---       #65
      ---         BLOCKEND  ---      ---       LVL=0

      00FEA965H   BLOCK     ECODE    ---       LVL=0
      REG=3       REGSYM    ---      ---       p
      00FEA969H   BLOCK     ECODE    NEAR LAB  LVL=1
      00000A9FH   SYMBOL    EDATA    ---       temp
      DR4         REGSYM    ---      DWORD     temp1
      DR28        REGSYM    ---      DWORD     temp2
      ---         BLOCKEND  ---      ---       LVL=1
      00FEA965H   LINE      ECODE    ---       #67
      00FEA969H   LINE      ECODE    ---       #68
      00FEA969H   LINE      ECODE    ---       #71
      00FEA978H   LINE      ECODE    ---       #72
      00FEA986H   LINE      ECODE    ---       #73
      00FEA99EH   LINE      ECODE    ---       #76
      00FEA9CAH   LINE      ECODE    ---       #77
      00FEA9EDH   LINE      ECODE    ---       #78
      ---         BLOCKEND  ---      ---       LVL=0

      00FEA9F0H   BLOCK     ECODE    ---       LVL=0
      00FEA9F2H   BLOCK     ECODE    NEAR LAB  LVL=1
      WR14        REGSYM    ---      WORD      time_out
      ---         BLOCKEND  ---      ---       LVL=1
      00FEA9F0H   LINE      ECODE    ---       #79
      00FEA9F2H   LINE      ECODE    ---       #80
L251 LINKER/LOCATER V4.66.93.0                                                        08/24/2022  19:19:43  PAGE 106


      00FEA9F2H   LINE      ECODE    ---       #81
      00FEA9F6H   LINE      ECODE    ---       #82
      00FEA9FEH   LINE      ECODE    ---       #83
      00FEAA00H   LINE      ECODE    ---       #85
      00FEAA08H   LINE      ECODE    ---       #86
      00FEAA10H   LINE      ECODE    ---       #87
      00FEAA13H   LINE      ECODE    ---       #88
      00FEAA19H   LINE      ECODE    ---       #89
      00FEAA55H   LINE      ECODE    ---       #90
      00FEAA5AH   LINE      ECODE    ---       #91
      00FEAA5CH   LINE      ECODE    ---       #92
      ---         BLOCKEND  ---      ---       LVL=0

      ---         MODULE    ---      ---       HTU21D
      00FEA885H   PUBLIC    ECODE    ---       HTU21DGetHumidity?
      00FEA7DCH   PUBLIC    ECODE    ---       HTU21DReadData?
      00FEA8E3H   PUBLIC    ECODE    ---       HTU21DReset?
      00FEA81EH   PUBLIC    ECODE    ---       HTU21DStart?
      00FEA824H   PUBLIC    ECODE    ---       HTU21DGetTemperature?
      00FEA7B3H   PUBLIC    ECODE    ---       HTU21DSendCommand?
      000000D0H   SFRSYM    DATA     BYTE      PSW
      00000088H   SFRSYM    DATA     BYTE      TCON
      00000098H   SFRSYM    DATA     BYTE      SCON
      000000B8H   SFRSYM    DATA     BYTE      IP
      000000A8H   SFRSYM    DATA     BYTE      IE
      000000BAH   SFRSYM    DATA     BYTE      P_SW2
      000000F8H   SFRSYM    DATA     BYTE      P7
      000000E8H   SFRSYM    DATA     BYTE      P6
      000000C8H   SFRSYM    DATA     BYTE      P5
      000000C0H   SFRSYM    DATA     BYTE      P4
      000000B0H   SFRSYM    DATA     BYTE      P3
      000000A0H   SFRSYM    DATA     BYTE      P2
      00000090H   SFRSYM    DATA     BYTE      P1
      00000080H   SFRSYM    DATA     BYTE      P0
      0000001EH   SYMBOL    EDATA    BYTE      step

      00FEA7B3H   BLOCK     ECODE    ---       LVL=0
      R15         REGSYM    ---      BYTE      command
      00FEA7B3H   LINE      ECODE    ---       #6
      00FEA7B7H   LINE      ECODE    ---       #8
      00FEA7BAH   LINE      ECODE    ---       #9
      00FEA7BEH   LINE      ECODE    ---       #10
      00FEA7C4H   LINE      ECODE    ---       #11
      00FEA7C8H   LINE      ECODE    ---       #12
      00FEA7CEH   LINE      ECODE    ---       #13
      00FEA7D2H   LINE      ECODE    ---       #14
      00FEA7D6H   LINE      ECODE    ---       #15
      00FEA7D9H   LINE      ECODE    ---       #16
      ---         BLOCKEND  ---      ---       LVL=0

      00FEA7DCH   BLOCK     ECODE    ---       LVL=0
      00FEA7DEH   BLOCK     ECODE    NEAR LAB  LVL=1
      WR14        REGSYM    ---      WORD      temp
      ---         BLOCKEND  ---      ---       LVL=1
      00FEA7DCH   LINE      ECODE    ---       #17
      00FEA7DEH   LINE      ECODE    ---       #18
      00FEA7DEH   LINE      ECODE    ---       #20
      00FEA7E1H   LINE      ECODE    ---       #21
      00FEA7E5H   LINE      ECODE    ---       #22
      00FEA7EBH   LINE      ECODE    ---       #23
      00FEA7EFH   LINE      ECODE    ---       #24
      00FEA7F7H   LINE      ECODE    ---       #25
      00FEA7FBH   LINE      ECODE    ---       #26
      00FEA803H   LINE      ECODE    ---       #27
      00FEA807H   LINE      ECODE    ---       #28
L251 LINKER/LOCATER V4.66.93.0                                                        08/24/2022  19:19:43  PAGE 107


      00FEA80BH   LINE      ECODE    ---       #29
      00FEA80FH   LINE      ECODE    ---       #30
      00FEA813H   LINE      ECODE    ---       #31
      00FEA816H   LINE      ECODE    ---       #32
      00FEA819H   LINE      ECODE    ---       #33
      00FEA81BH   LINE      ECODE    ---       #34
      ---         BLOCKEND  ---      ---       LVL=0

      00FEA81EH   BLOCK     ECODE    ---       LVL=0
      00FEA81EH   LINE      ECODE    ---       #35
      00FEA81EH   LINE      ECODE    ---       #37
      00FEA823H   LINE      ECODE    ---       #38
      ---         BLOCKEND  ---      ---       LVL=0

      00FEA824H   BLOCK     ECODE    ---       LVL=0
      REG=3       REGSYM    ---      ---       p
      00FEA844H   BLOCK     ECODE    NEAR LAB  LVL=1
      WR6         REGSYM    ---      WORD      temp
      ---         BLOCKEND  ---      ---       LVL=1
      00FEA824H   LINE      ECODE    ---       #39
      00FEA828H   LINE      ECODE    ---       #41
      00FEA82EH   LINE      ECODE    ---       #43
      00FEA834H   LINE      ECODE    ---       #44
      00FEA83AH   LINE      ECODE    ---       #45
      00FEA83DH   LINE      ECODE    ---       #46
      00FEA83DH   LINE      ECODE    ---       #47
      00FEA844H   LINE      ECODE    ---       #48
      00FEA844H   LINE      ECODE    ---       #49
      00FEA848H   LINE      ECODE    ---       #50
      00FEA878H   LINE      ECODE    ---       #51
      00FEA87DH   LINE      ECODE    ---       #52
      00FEA881H   LINE      ECODE    ---       #53
      00FEA881H   LINE      ECODE    ---       #54
      00FEA882H   LINE      ECODE    ---       #55
      ---         BLOCKEND  ---      ---       LVL=0

      00FEA885H   BLOCK     ECODE    ---       LVL=0
      REG=3       REGSYM    ---      ---       p
      00FEA8A5H   BLOCK     ECODE    NEAR LAB  LVL=1
      WR6         REGSYM    ---      WORD      temp
      ---         BLOCKEND  ---      ---       LVL=1
      00FEA885H   LINE      ECODE    ---       #56
      00FEA889H   LINE      ECODE    ---       #58
      00FEA88FH   LINE      ECODE    ---       #60
      00FEA895H   LINE      ECODE    ---       #61
      00FEA89BH   LINE      ECODE    ---       #62
      00FEA89EH   LINE      ECODE    ---       #63
      00FEA89EH   LINE      ECODE    ---       #64
      00FEA8A5H   LINE      ECODE    ---       #65
      00FEA8A5H   LINE      ECODE    ---       #66
      00FEA8A9H   LINE      ECODE    ---       #67
      00FEA8D6H   LINE      ECODE    ---       #68
      00FEA8DBH   LINE      ECODE    ---       #69
      00FEA8DFH   LINE      ECODE    ---       #70
      00FEA8DFH   LINE      ECODE    ---       #71
      00FEA8E0H   LINE      ECODE    ---       #72
      ---         BLOCKEND  ---      ---       LVL=0

      00FEA8E3H   BLOCK     ECODE    ---       LVL=0
      00FEA8E3H   LINE      ECODE    ---       #73
      00FEA8E3H   LINE      ECODE    ---       #75
      00FEA8E6H   LINE      ECODE    ---       #76
      00FEA8EAH   LINE      ECODE    ---       #77
      00FEA8F0H   LINE      ECODE    ---       #78
      00FEA8F4H   LINE      ECODE    ---       #79
L251 LINKER/LOCATER V4.66.93.0                                                        08/24/2022  19:19:43  PAGE 108


      00FEA8FAH   LINE      ECODE    ---       #80
      00FEA8FEH   LINE      ECODE    ---       #81
      00FEA902H   LINE      ECODE    ---       #82
      00FEA905H   LINE      ECODE    ---       #83
      ---         BLOCKEND  ---      ---       LVL=0

      ---         MODULE    ---      ---       pageManager
      00FE9EDEH   PUBLIC    ECODE    ---       pageCloseCurrentPage?
      00FE9E19H   PUBLIC    ECODE    ---       pageExecuteRate?
      00FE9EB2H   PUBLIC    ECODE    ---       pageOpenCurrentPage?
      00FE9EFCH   PUBLIC    ECODE    ---       pageShift?
      00FE9E0EH   PUBLIC    ECODE    ---       pageTick?
      00FE9DA5H   PUBLIC    ECODE    ---       pageInit?
      00FE9F8CH   PUBLIC    ECODE    ---       pageGetStatus?
      00FE9F81H   PUBLIC    ECODE    ---       pageSetStatus?
      00FE9F6DH   PUBLIC    ECODE    ---       pageRun?
      00FE9E37H   PUBLIC    ECODE    ---       pageRegister?
      00FE9E86H   PUBLIC    ECODE    ---       pageEventTransmit?
      00000429H   PUBLIC    EDATA    ---       Rate5Hz
      0000042DH   PUBLIC    EDATA    ---       Rate1000Hz
      00000431H   PUBLIC    EDATA    ---       Rate10Hz
      00000435H   PUBLIC    EDATA    ---       Rate20Hz
      00000439H   PUBLIC    EDATA    ---       Rate50Hz
      00000441H   PUBLIC    EDATA    ---       pagelist
      00000603H   PUBLIC    EDATA    ---       Rate100Hz
      00000607H   PUBLIC    EDATA    ---       Rate125Hz
      0000079EH   PUBLIC    EDATA    BYTE      ?pageRegister??BYTE
      0000043DH   SYMBOL    EDATA    INT       now_page
      0000043FH   SYMBOL    EDATA    WORD      page_timestamp

      00FE9DA5H   BLOCK     ECODE    ---       LVL=0
      00FE9DA5H   LINE      ECODE    ---       #124
      00FE9DA5H   LINE      ECODE    ---       #126
      00FE9DAAH   LINE      ECODE    ---       #127
      00FE9DB0H   LINE      ECODE    ---       #128
      00FE9DB6H   LINE      ECODE    ---       #130
      00FE9DBCH   LINE      ECODE    ---       #131
      00FE9DC2H   LINE      ECODE    ---       #132
      00FE9DC8H   LINE      ECODE    ---       #133
      00FE9DCEH   LINE      ECODE    ---       #134
      00FE9DD4H   LINE      ECODE    ---       #135
      00FE9DDAH   LINE      ECODE    ---       #136
      00FE9DE0H   LINE      ECODE    ---       #137
      00FE9DE6H   LINE      ECODE    ---       #138
      00FE9DECH   LINE      ECODE    ---       #139
      00FE9DF2H   LINE      ECODE    ---       #140
      00FE9DF8H   LINE      ECODE    ---       #141
      00FE9DFEH   LINE      ECODE    ---       #142
      00FE9E04H   LINE      ECODE    ---       #143
      00FE9E0AH   LINE      ECODE    ---       #144
      ---         BLOCKEND  ---      ---       LVL=0

      00FE9E0EH   BLOCK     ECODE    ---       LVL=0
      00FE9E0EH   LINE      ECODE    ---       #10
      00FE9E0EH   LINE      ECODE    ---       #12
      00FE9E18H   LINE      ECODE    ---       #13
      ---         BLOCKEND  ---      ---       LVL=0

      00FE9E19H   BLOCK     ECODE    ---       LVL=0
      REG=2       REGSYM    ---      ---       er
      00FE9E19H   LINE      ECODE    ---       #19
      00FE9E1BH   LINE      ECODE    ---       #21
      00FE9E2EH   LINE      ECODE    ---       #23
      00FE9E32H   LINE      ECODE    ---       #24
      00FE9E35H   LINE      ECODE    ---       #25
L251 LINKER/LOCATER V4.66.93.0                                                        08/24/2022  19:19:43  PAGE 109


      00FE9E35H   LINE      ECODE    ---       #27
      00FE9E36H   LINE      ECODE    ---       #28
      ---         BLOCKEND  ---      ---       LVL=0

      00FE9E37H   BLOCK     ECODE    ---       LVL=0
      R2          REGSYM    ---      BYTE      pageID
      REG=6       REGSYM    ---      ---       pageTitle
      REG=1       REGSYM    ---      ---       pageIcon
      000007A7H   SYMBOL    EDATA    ---       setupCallback
      000007ABH   SYMBOL    EDATA    ---       loopCallback
      000007AFH   SYMBOL    EDATA    ---       exitCallback
      000007B3H   SYMBOL    EDATA    ---       eventCallback
      00FE9E37H   LINE      ECODE    ---       #40
      00FE9E3BH   LINE      ECODE    ---       #50
      00FE9E48H   LINE      ECODE    ---       #51
      00FE9E50H   LINE      ECODE    ---       #52
      00FE9E55H   LINE      ECODE    ---       #53
      00FE9E61H   LINE      ECODE    ---       #54
      00FE9E6DH   LINE      ECODE    ---       #55
      00FE9E79H   LINE      ECODE    ---       #56
      00FE9E85H   LINE      ECODE    ---       #57
      ---         BLOCKEND  ---      ---       LVL=0

      00FE9E86H   BLOCK     ECODE    ---       LVL=0
      R10         REGSYM    ---      BYTE      event
      00FE9E86H   LINE      ECODE    ---       #63
      00FE9E88H   LINE      ECODE    ---       #66
      00FE9EA5H   LINE      ECODE    ---       #67
      00FE9EB1H   LINE      ECODE    ---       #68
      ---         BLOCKEND  ---      ---       LVL=0

      00FE9EB2H   BLOCK     ECODE    ---       LVL=0
      00FE9EB2H   LINE      ECODE    ---       #69
      00FE9EB2H   LINE      ECODE    ---       #71
      00FE9EC2H   LINE      ECODE    ---       #73
      00FE9ECDH   LINE      ECODE    ---       #74
      00FE9EDDH   LINE      ECODE    ---       #75
      ---         BLOCKEND  ---      ---       LVL=0

      00FE9EDEH   BLOCK     ECODE    ---       LVL=0
      00FE9EDEH   LINE      ECODE    ---       #77
      00FE9EDEH   LINE      ECODE    ---       #79
      00FE9EEFH   LINE      ECODE    ---       #80
      00FE9EFBH   LINE      ECODE    ---       #81
      ---         BLOCKEND  ---      ---       LVL=0

      00FE9EFCH   BLOCK     ECODE    ---       LVL=0
      R15         REGSYM    ---      BYTE      pageID
      R14         REGSYM    ---      BYTE      condition
      00FE9EFCH   LINE      ECODE    ---       #87
      00FE9F02H   LINE      ECODE    ---       #89
      00FE9F14H   LINE      ECODE    ---       #91
      00FE9F2AH   LINE      ECODE    ---       #93
      00FE9F36H   LINE      ECODE    ---       #94
      00FE9F36H   LINE      ECODE    ---       #95
      00FE9F3CH   LINE      ECODE    ---       #96
      00FE9F4EH   LINE      ECODE    ---       #98
      00FE9F5AH   LINE      ECODE    ---       #99
      00FE9F6AH   LINE      ECODE    ---       #100
      00FE9F6AH   LINE      ECODE    ---       #102
      ---         BLOCKEND  ---      ---       LVL=0

      00FE9F6DH   BLOCK     ECODE    ---       LVL=0
      00FE9F6DH   LINE      ECODE    ---       #105
      00FE9F6DH   LINE      ECODE    ---       #107
L251 LINKER/LOCATER V4.66.93.0                                                        08/24/2022  19:19:43  PAGE 110


      ---         BLOCKEND  ---      ---       LVL=0

      00FE9F81H   BLOCK     ECODE    ---       LVL=0
      R5          REGSYM    ---      BYTE      pageID
      R7          REGSYM    ---      BYTE      status
      00FE9F81H   LINE      ECODE    ---       #110
      00FE9F83H   LINE      ECODE    ---       #112
      00FE9F8BH   LINE      ECODE    ---       #113
      ---         BLOCKEND  ---      ---       LVL=0

      00FE9F8CH   BLOCK     ECODE    ---       LVL=0
      00FE9F8CH   LINE      ECODE    ---       #114
      00FE9F8CH   LINE      ECODE    ---       #116
      00FE9F9AH   LINE      ECODE    ---       #117
      ---         BLOCKEND  ---      ---       LVL=0

      ---         MODULE    ---      ---       page_alarm
      00FE3FE9H   PUBLIC    ECODE    ---       showText6?
      00FE42A5H   PUBLIC    ECODE    ---       pageRegister_page_alarm?
      000000D0H   SFRSYM    DATA     BYTE      PSW
      00000088H   SFRSYM    DATA     BYTE      TCON
      00000098H   SFRSYM    DATA     BYTE      SCON
      000000B8H   SFRSYM    DATA     BYTE      IP
      000000A8H   SFRSYM    DATA     BYTE      IE
      000000F8H   SFRSYM    DATA     BYTE      P7
      000000E8H   SFRSYM    DATA     BYTE      P6
      000000C8H   SFRSYM    DATA     BYTE      P5
      000000C0H   SFRSYM    DATA     BYTE      P4
      000000B0H   SFRSYM    DATA     BYTE      P3
      000000A0H   SFRSYM    DATA     BYTE      P2
      00000090H   SFRSYM    DATA     BYTE      P1
      00000080H   SFRSYM    DATA     BYTE      P0
      00FE3FF3H   SYMBOL    ECODE    ---       Event?
      00FE3EEFH   SYMBOL    ECODE    ---       delet?
      00FE3D69H   SYMBOL    ECODE    ---       Setup?
      00FE3F39H   SYMBOL    ECODE    ---       Loop?
      00FE3EFFH   SYMBOL    ECODE    ---       Exit?
      00FF0BBEH   SYMBOL    CODE     ---       ch3
      00FF0BC9H   SYMBOL    CODE     ---       Icon
      00FF0CEBH   SYMBOL    CODE     ---       ALARM_MODE
      00FF0D0EH   SYMBOL    CODE     ---       ch1
      00FF0D19H   SYMBOL    CODE     ---       ch2
      000009EDH   SYMBOL    EDATA    ---       group1
      000009F1H   SYMBOL    EDATA    ---       text1
      000009F5H   SYMBOL    EDATA    ---       text2
      000009F9H   SYMBOL    EDATA    ---       text3
      000009FDH   SYMBOL    EDATA    ---       text4
      00000A01H   SYMBOL    EDATA    ---       text5
      00000A05H   SYMBOL    EDATA    ---       text6

      00FE3D69H   BLOCK     ECODE    ---       LVL=0
      00FE3D69H   LINE      ECODE    ---       #44
      00FE3D69H   LINE      ECODE    ---       #46
      00FE3D77H   LINE      ECODE    ---       #47
      00FE3D85H   LINE      ECODE    ---       #48
      00FE3D95H   LINE      ECODE    ---       #49
      00FE3DADH   LINE      ECODE    ---       #50
      00FE3DC3H   LINE      ECODE    ---       #51
      00FE3DD5H   LINE      ECODE    ---       #52
      00FE3DE3H   LINE      ECODE    ---       #53
      00FE3DF5H   LINE      ECODE    ---       #54
      00FE3E07H   LINE      ECODE    ---       #55
      00FE3E19H   LINE      ECODE    ---       #56
      00FE3E22H   LINE      ECODE    ---       #58
      00FE3E2BH   LINE      ECODE    ---       #59
L251 LINKER/LOCATER V4.66.93.0                                                        08/24/2022  19:19:43  PAGE 111


      00FE3E2DH   LINE      ECODE    ---       #62
      00FE3E3DH   LINE      ECODE    ---       #63
      00FE3E4DH   LINE      ECODE    ---       #64
      00FE3E5DH   LINE      ECODE    ---       #65
      00FE3E6DH   LINE      ECODE    ---       #66
      00FE3E6DH   LINE      ECODE    ---       #67
      00FE3E77H   LINE      ECODE    ---       #68
      00FE3E82H   LINE      ECODE    ---       #69
      00FE3E90H   LINE      ECODE    ---       #70
      00FE3E9DH   LINE      ECODE    ---       #71
      00FE3EABH   LINE      ECODE    ---       #72
      00FE3EB9H   LINE      ECODE    ---       #73
      00FE3EC7H   LINE      ECODE    ---       #74
      00FE3ED5H   LINE      ECODE    ---       #75
      ---         BLOCKEND  ---      ---       LVL=0

      00FE3EEFH   BLOCK     ECODE    ---       LVL=0
      00FE3EEFH   LINE      ECODE    ---       #77
      00FE3EEFH   LINE      ECODE    ---       #79
      00FE3EF7H   LINE      ECODE    ---       #80
      ---         BLOCKEND  ---      ---       LVL=0

      00FE3EFFH   BLOCK     ECODE    ---       LVL=0
      00FE3EFFH   LINE      ECODE    ---       #87
      00FE3EFFH   LINE      ECODE    ---       #89
      00FE3F0BH   LINE      ECODE    ---       #90
      00FE3F17H   LINE      ECODE    ---       #91
      ---         BLOCKEND  ---      ---       LVL=0

      00FE3F39H   BLOCK     ECODE    ---       LVL=0
      00FE3F39H   LINE      ECODE    ---       #98
      00FE3F39H   LINE      ECODE    ---       #100
      00FE3F46H   LINE      ECODE    ---       #102
      00FE3F60H   LINE      ECODE    ---       #103
      00FE3F76H   LINE      ECODE    ---       #104
      00FE3F9CH   LINE      ECODE    ---       #105
      00FE3FC2H   LINE      ECODE    ---       #106
      00FE3FE8H   LINE      ECODE    ---       #107
      ---         BLOCKEND  ---      ---       LVL=0

      00FE3FE9H   BLOCK     ECODE    ---       LVL=0
      00FE3FE9H   LINE      ECODE    ---       #109
      00FE3FE9H   LINE      ECODE    ---       #111
      ---         BLOCKEND  ---      ---       LVL=0

      00FE3FF3H   BLOCK     ECODE    ---       LVL=0
      R15         REGSYM    ---      BYTE      event
      00FE404EH   BLOCK     ECODE    NEAR LAB  LVL=1
      R14         REGSYM    ---      BYTE      i
      ---         BLOCKEND  ---      ---       LVL=1
      00FE414AH   BLOCK     ECODE    NEAR LAB  LVL=1
      R15         REGSYM    ---      BYTE      i
      ---         BLOCKEND  ---      ---       LVL=1
      00FE3FF3H   LINE      ECODE    ---       #119
      00FE3FF7H   LINE      ECODE    ---       #121
      00FE4001H   LINE      ECODE    ---       #122
      00FE400DH   LINE      ECODE    ---       #123
      00FE4012H   LINE      ECODE    ---       #125
      00FE401CH   LINE      ECODE    ---       #126
      00FE402DH   LINE      ECODE    ---       #128
      00FE4039H   LINE      ECODE    ---       #129
      00FE4043H   LINE      ECODE    ---       #130
      00FE4043H   LINE      ECODE    ---       #131
      00FE4046H   LINE      ECODE    ---       #132
      00FE404EH   LINE      ECODE    ---       #133
L251 LINKER/LOCATER V4.66.93.0                                                        08/24/2022  19:19:43  PAGE 112


      00FE404EH   LINE      ECODE    ---       #134
      00FE4058H   LINE      ECODE    ---       #135
      00FE4060H   LINE      ECODE    ---       #137
      00FE4067H   LINE      ECODE    ---       #139
      00FE4077H   LINE      ECODE    ---       #140
      00FE4095H   LINE      ECODE    ---       #141
      00FE40B3H   LINE      ECODE    ---       #142
      00FE40D1H   LINE      ECODE    ---       #143
      00FE40DAH   LINE      ECODE    ---       #144
      00FE40DAH   LINE      ECODE    ---       #145
      00FE40E5H   LINE      ECODE    ---       #146
      00FE40EAH   LINE      ECODE    ---       #147
      00FE40F6H   LINE      ECODE    ---       #149
      00FE40F6H   LINE      ECODE    ---       #150
      00FE40F6H   LINE      ECODE    ---       #151
      00FE40F6H   LINE      ECODE    ---       #152
      00FE40F6H   LINE      ECODE    ---       #153
      00FE40F9H   LINE      ECODE    ---       #155
      00FE40FEH   LINE      ECODE    ---       #157
      00FE410CH   LINE      ECODE    ---       #158
      00FE410DH   LINE      ECODE    ---       #159
      00FE4110H   LINE      ECODE    ---       #160
      00FE4115H   LINE      ECODE    ---       #162
      00FE4123H   LINE      ECODE    ---       #163
      00FE4124H   LINE      ECODE    ---       #164
      00FE4127H   LINE      ECODE    ---       #165
      00FE412FH   LINE      ECODE    ---       #167
      00FE413DH   LINE      ECODE    ---       #168
      00FE413FH   LINE      ECODE    ---       #169
      00FE413FH   LINE      ECODE    ---       #170
      00FE4142H   LINE      ECODE    ---       #171
      00FE414AH   LINE      ECODE    ---       #172
      00FE414AH   LINE      ECODE    ---       #173
      00FE4154H   LINE      ECODE    ---       #174
      00FE415CH   LINE      ECODE    ---       #176
      00FE4163H   LINE      ECODE    ---       #178
      00FE4173H   LINE      ECODE    ---       #179
      00FE4191H   LINE      ECODE    ---       #180
      00FE41AFH   LINE      ECODE    ---       #181
      00FE41CDH   LINE      ECODE    ---       #182
      00FE41D6H   LINE      ECODE    ---       #183
      00FE41D6H   LINE      ECODE    ---       #184
      00FE41DFH   LINE      ECODE    ---       #185
      00FE41E5H   LINE      ECODE    ---       #186
      00FE41F1H   LINE      ECODE    ---       #188
      00FE4201H   LINE      ECODE    ---       #189
      00FE421FH   LINE      ECODE    ---       #190
      00FE423DH   LINE      ECODE    ---       #191
      00FE4261H   LINE      ECODE    ---       #192
      00FE4263H   LINE      ECODE    ---       #194
      00FE4268H   LINE      ECODE    ---       #196
      00FE4271H   LINE      ECODE    ---       #197
      00FE4277H   LINE      ECODE    ---       #198
      00FE4279H   LINE      ECODE    ---       #199
      00FE427EH   LINE      ECODE    ---       #201
      00FE4287H   LINE      ECODE    ---       #202
      00FE428DH   LINE      ECODE    ---       #203
      00FE428FH   LINE      ECODE    ---       #204
      00FE4294H   LINE      ECODE    ---       #206
      00FE429CH   LINE      ECODE    ---       #207
      00FE42A2H   LINE      ECODE    ---       #208
      00FE42A2H   LINE      ECODE    ---       #209
      00FE42A2H   LINE      ECODE    ---       #210
      ---         BLOCKEND  ---      ---       LVL=0

L251 LINKER/LOCATER V4.66.93.0                                                        08/24/2022  19:19:43  PAGE 113


      00FE42A5H   BLOCK     ECODE    ---       LVL=0
      R3          REGSYM    ---      BYTE      pageID
      00FE42A5H   LINE      ECODE    ---       #211
      00FE42A5H   LINE      ECODE    ---       #213
      ---         BLOCKEND  ---      ---       LVL=0

      ---         MODULE    ---      ---       page_compass
      00FE6ECAH   PUBLIC    ECODE    ---       pageRegister_page_compass?
      000000D0H   SFRSYM    DATA     BYTE      PSW
      00000088H   SFRSYM    DATA     BYTE      TCON
      00000098H   SFRSYM    DATA     BYTE      SCON
      000000B8H   SFRSYM    DATA     BYTE      IP
      000000A8H   SFRSYM    DATA     BYTE      IE
      000000F8H   SFRSYM    DATA     BYTE      P7
      000000E8H   SFRSYM    DATA     BYTE      P6
      000000C8H   SFRSYM    DATA     BYTE      P5
      000000C0H   SFRSYM    DATA     BYTE      P4
      000000B0H   SFRSYM    DATA     BYTE      P3
      000000A0H   SFRSYM    DATA     BYTE      P2
      00000090H   SFRSYM    DATA     BYTE      P1
      00000080H   SFRSYM    DATA     BYTE      P0
      00FE6EB0H   SYMBOL    ECODE    ---       Event?
      00FE6BABH   SYMBOL    ECODE    ---       delet?
      00FE6AA7H   SYMBOL    ECODE    ---       Setup?
      00FE6BFCH   SYMBOL    ECODE    ---       Loop?
      00FE6BBBH   SYMBOL    ECODE    ---       Exit?
      00FF0A56H   SYMBOL    CODE     ---       CH
      00FF0A76H   SYMBOL    CODE     ---       Icon
      00FF0B98H   SYMBOL    CODE     ---       POINTER
      00000899H   SYMBOL    EDATA    ---       canvas1
      0000089DH   SYMBOL    EDATA    ---       pp
      000008BDH   SYMBOL    EDATA    ---       group1
      000008C1H   SYMBOL    EDATA    ---       bmp1
      000008C5H   SYMBOL    EDATA    ---       text1

      00FE6AA7H   BLOCK     ECODE    ---       LVL=0
      00FE6AA9H   BLOCK     ECODE    NEAR LAB  LVL=1
      R15         REGSYM    ---      BYTE      i
      ---         BLOCKEND  ---      ---       LVL=1
      00FE6AA7H   LINE      ECODE    ---       #54
      00FE6AA9H   LINE      ECODE    ---       #55
      00FE6AA9H   LINE      ECODE    ---       #57
      00FE6AB3H   LINE      ECODE    ---       #58
      00FE6AB5H   LINE      ECODE    ---       #60
      00FE6ACFH   LINE      ECODE    ---       #61
      00FE6AEAH   LINE      ECODE    ---       #62
      00FE6AFFH   LINE      ECODE    ---       #63
      00FE6B06H   LINE      ECODE    ---       #64
      00FE6B16H   LINE      ECODE    ---       #65
      00FE6B2EH   LINE      ECODE    ---       #66
      00FE6B41H   LINE      ECODE    ---       #67
      00FE6B4EH   LINE      ECODE    ---       #68
      00FE6B5BH   LINE      ECODE    ---       #69
      00FE6B68H   LINE      ECODE    ---       #70
      00FE6B76H   LINE      ECODE    ---       #71
      00FE6B90H   LINE      ECODE    ---       #73
      00FE6B96H   LINE      ECODE    ---       #75
      00FE6B9FH   LINE      ECODE    ---       #76
      00FE6BA8H   LINE      ECODE    ---       #77
      ---         BLOCKEND  ---      ---       LVL=0

      00FE6BABH   BLOCK     ECODE    ---       LVL=0
      00FE6BABH   LINE      ECODE    ---       #78
      00FE6BABH   LINE      ECODE    ---       #80
      00FE6BB3H   LINE      ECODE    ---       #81
L251 LINKER/LOCATER V4.66.93.0                                                        08/24/2022  19:19:43  PAGE 114


      ---         BLOCKEND  ---      ---       LVL=0

      00FE6BBBH   BLOCK     ECODE    ---       LVL=0
      00FE6BBBH   LINE      ECODE    ---       #88
      00FE6BBBH   LINE      ECODE    ---       #91
      00FE6BC0H   LINE      ECODE    ---       #93
      00FE6BC6H   LINE      ECODE    ---       #94
      00FE6BC9H   LINE      ECODE    ---       #96
      00FE6BD2H   LINE      ECODE    ---       #97
      00FE6BDAH   LINE      ECODE    ---       #98
      ---         BLOCKEND  ---      ---       LVL=0

      00FE6BFCH   BLOCK     ECODE    ---       LVL=0
      00FE6C13H   BLOCK     ECODE    NEAR LAB  LVL=1
      DR24        REGSYM    ---      FLOAT     temp
      000008C9H   SYMBOL    EDATA    FLOAT     last_temp
      WR14        REGSYM    ---      INT       angle_from_north
      000007A7H   SYMBOL    EDATA    INT       cosA
      WR12        REGSYM    ---      INT       sinA
      000007A9H   SYMBOL    EDATA    BYTE      i
      000007AAH   SYMBOL    EDATA    BYTE      j
      ---         BLOCKEND  ---      ---       LVL=1
      00FE6BFCH   LINE      ECODE    ---       #105
      00FE6BFEH   LINE      ECODE    ---       #107
      00FE6C06H   LINE      ECODE    ---       #113
      00FE6C06H   LINE      ECODE    ---       #114
      00FE6C13H   LINE      ECODE    ---       #115
      00FE6C13H   LINE      ECODE    ---       #122
      00FE6C1FH   LINE      ECODE    ---       #123
      00FE6C45H   LINE      ECODE    ---       #125
      00FE6C61H   LINE      ECODE    ---       #126
      00FE6C61H   LINE      ECODE    ---       #127
      00FE6C87H   LINE      ECODE    ---       #128
      00FE6C8DH   LINE      ECODE    ---       #130
      00FE6CB7H   LINE      ECODE    ---       #131
      00FE6CCBH   LINE      ECODE    ---       #132
      00FE6CCFH   LINE      ECODE    ---       #133
      00FE6CD5H   LINE      ECODE    ---       #134
      00FE6CD9H   LINE      ECODE    ---       #138
      00FE6CF9H   LINE      ECODE    ---       #140
      00FE6D03H   LINE      ECODE    ---       #141
      00FE6D2DH   LINE      ECODE    ---       #142
      00FE6D55H   LINE      ECODE    ---       #143
      00FE6D6BH   LINE      ECODE    ---       #144
      00FE6D81H   LINE      ECODE    ---       #145
      00FE6D97H   LINE      ECODE    ---       #146
      00FE6DADH   LINE      ECODE    ---       #147
      00FE6DB5H   LINE      ECODE    ---       #148
      00FE6DBAH   LINE      ECODE    ---       #150
      00FE6DBEH   LINE      ECODE    ---       #151
      00FE6DC3H   LINE      ECODE    ---       #153
      00FE6DFCH   LINE      ECODE    ---       #154
      00FE6E33H   LINE      ECODE    ---       #155
      00FE6E49H   LINE      ECODE    ---       #156
      00FE6E5FH   LINE      ECODE    ---       #157
      00FE6E75H   LINE      ECODE    ---       #158
      00FE6E8BH   LINE      ECODE    ---       #159
      00FE6E9CH   LINE      ECODE    ---       #160
      00FE6EADH   LINE      ECODE    ---       #161
      ---         BLOCKEND  ---      ---       LVL=0

      00FE6EB0H   BLOCK     ECODE    ---       LVL=0
      R7          REGSYM    ---      BYTE      event
      00FE6EB0H   LINE      ECODE    ---       #169
      00FE6EB2H   LINE      ECODE    ---       #171
L251 LINKER/LOCATER V4.66.93.0                                                        08/24/2022  19:19:43  PAGE 115


      00FE6EB6H   LINE      ECODE    ---       #172
      00FE6EBDH   LINE      ECODE    ---       #173
      00FE6EC1H   LINE      ECODE    ---       #174
      00FE6EC9H   LINE      ECODE    ---       #175
      ---         BLOCKEND  ---      ---       LVL=0

      00FE6ECAH   BLOCK     ECODE    ---       LVL=0
      R3          REGSYM    ---      BYTE      pageID
      00FE6ECAH   LINE      ECODE    ---       #176
      00FE6ECAH   LINE      ECODE    ---       #178
      ---         BLOCKEND  ---      ---       LVL=0

      ---         MODULE    ---      ---       page_devInfo
      00FE9233H   PUBLIC    ECODE    ---       pageRegister_page_devinfo?
      00FF0E79H   PUBLIC    CODE     ---       CH
      00FF0FAFH   PUBLIC    CODE     ---       EN
      000000D0H   SFRSYM    DATA     BYTE      PSW
      00000088H   SFRSYM    DATA     BYTE      TCON
      00000098H   SFRSYM    DATA     BYTE      SCON
      000000B8H   SFRSYM    DATA     BYTE      IP
      000000A8H   SFRSYM    DATA     BYTE      IE
      000000F8H   SFRSYM    DATA     BYTE      P7
      000000E8H   SFRSYM    DATA     BYTE      P6
      000000C8H   SFRSYM    DATA     BYTE      P5
      000000C0H   SFRSYM    DATA     BYTE      P4
      000000B0H   SFRSYM    DATA     BYTE      P3
      000000A0H   SFRSYM    DATA     BYTE      P2
      00000090H   SFRSYM    DATA     BYTE      P1
      00000080H   SFRSYM    DATA     BYTE      P0
      00FE91C0H   SYMBOL    ECODE    ---       Event?
      00FE90EAH   SYMBOL    ECODE    ---       delet?
      00FE8FFAH   SYMBOL    ECODE    ---       Setup?
      00FE9124H   SYMBOL    ECODE    ---       Loop?
      00FE90FAH   SYMBOL    ECODE    ---       Exit?
      00FF0E8DH   SYMBOL    CODE     ---       Icon
      00000930H   SYMBOL    EDATA    BYTE      page
      00000931H   SYMBOL    EDATA    ---       group1
      00000935H   SYMBOL    EDATA    ---       ch_text
      00000949H   SYMBOL    EDATA    ---       en_text

      00FE8FFAH   BLOCK     ECODE    ---       LVL=0
      00FE8FFCH   BLOCK     ECODE    NEAR LAB  LVL=1
      R15         REGSYM    ---      BYTE      i
      ---         BLOCKEND  ---      ---       LVL=1
      00FE8FFAH   LINE      ECODE    ---       #52
      00FE8FFCH   LINE      ECODE    ---       #53
      00FE8FFCH   LINE      ECODE    ---       #55
      00FE9006H   LINE      ECODE    ---       #56
      00FE9008H   LINE      ECODE    ---       #58
      00FE9021H   LINE      ECODE    ---       #59
      00FE903CH   LINE      ECODE    ---       #60
      00FE9059H   LINE      ECODE    ---       #61
      00FE9074H   LINE      ECODE    ---       #62
      00FE9086H   LINE      ECODE    ---       #63
      00FE909BH   LINE      ECODE    ---       #64
      00FE90B0H   LINE      ECODE    ---       #65
      00FE90BAH   LINE      ECODE    ---       #66
      00FE90C8H   LINE      ECODE    ---       #67
      00FE90E2H   LINE      ECODE    ---       #68
      00FE90E7H   LINE      ECODE    ---       #69
      ---         BLOCKEND  ---      ---       LVL=0

      00FE90EAH   BLOCK     ECODE    ---       LVL=0
      00FE90EAH   LINE      ECODE    ---       #70
      00FE90EAH   LINE      ECODE    ---       #72
L251 LINKER/LOCATER V4.66.93.0                                                        08/24/2022  19:19:43  PAGE 116


      00FE90F2H   LINE      ECODE    ---       #73
      ---         BLOCKEND  ---      ---       LVL=0

      00FE90FAH   BLOCK     ECODE    ---       LVL=0
      00FE90FAH   LINE      ECODE    ---       #80
      00FE90FAH   LINE      ECODE    ---       #82
      00FE9102H   LINE      ECODE    ---       #83
      ---         BLOCKEND  ---      ---       LVL=0

      00FE9124H   BLOCK     ECODE    ---       LVL=0
      00FE9131H   BLOCK     ECODE    NEAR LAB  LVL=1
      REG=1       REGSYM    ---      ---       t
      ---         BLOCKEND  ---      ---       LVL=1
      00FE9124H   LINE      ECODE    ---       #90
      00FE9124H   LINE      ECODE    ---       #92
      00FE9131H   LINE      ECODE    ---       #93
      00FE9131H   LINE      ECODE    ---       #94
      00FE9139H   LINE      ECODE    ---       #95
      00FE9179H   LINE      ECODE    ---       #96
      00FE9183H   LINE      ECODE    ---       #97
      00FE91B5H   LINE      ECODE    ---       #98
      00FE91BFH   LINE      ECODE    ---       #99
      ---         BLOCKEND  ---      ---       LVL=0

      00FE91C0H   BLOCK     ECODE    ---       LVL=0
      R10         REGSYM    ---      BYTE      event
      00FE91C0H   LINE      ECODE    ---       #107
      00FE91C2H   LINE      ECODE    ---       #109
      00FE91CCH   LINE      ECODE    ---       #110
      00FE91D5H   LINE      ECODE    ---       #111
      00FE91DAH   LINE      ECODE    ---       #113
      00FE91E0H   LINE      ECODE    ---       #115
      00FE91FAH   LINE      ECODE    ---       #116
      00FE91FFH   LINE      ECODE    ---       #117
      00FE9201H   LINE      ECODE    ---       #119
      00FE9206H   LINE      ECODE    ---       #121
      00FE920FH   LINE      ECODE    ---       #123
      00FE9229H   LINE      ECODE    ---       #124
      00FE9232H   LINE      ECODE    ---       #125
      00FE9232H   LINE      ECODE    ---       #127
      ---         BLOCKEND  ---      ---       LVL=0

      00FE9233H   BLOCK     ECODE    ---       LVL=0
      R3          REGSYM    ---      BYTE      pageID
      00FE9233H   LINE      ECODE    ---       #128
      00FE9233H   LINE      ECODE    ---       #130
      ---         BLOCKEND  ---      ---       LVL=0

      ---         MODULE    ---      ---       page_flashlight
      00FEA129H   PUBLIC    ECODE    ---       pageRegister_page_flashlight?
      000000D0H   SFRSYM    DATA     BYTE      PSW
      00000088H   SFRSYM    DATA     BYTE      TCON
      00000098H   SFRSYM    DATA     BYTE      SCON
      000000B8H   SFRSYM    DATA     BYTE      IP
      000000A8H   SFRSYM    DATA     BYTE      IE
      000000F8H   SFRSYM    DATA     BYTE      P7
      000000E8H   SFRSYM    DATA     BYTE      P6
      000000C8H   SFRSYM    DATA     BYTE      P5
      000000C0H   SFRSYM    DATA     BYTE      P4
      000000B0H   SFRSYM    DATA     BYTE      P3
      000000A0H   SFRSYM    DATA     BYTE      P2
      00000090H   SFRSYM    DATA     BYTE      P1
      00000080H   SFRSYM    DATA     BYTE      P0
      00FEA07FH   SYMBOL    ECODE    ---       Event?
      00FEA003H   SYMBOL    ECODE    ---       delet?
L251 LINKER/LOCATER V4.66.93.0                                                        08/24/2022  19:19:43  PAGE 117


      00FE9F9BH   SYMBOL    ECODE    ---       Setup?
      00FEA058H   SYMBOL    ECODE    ---       Loop?
      00FEA013H   SYMBOL    ECODE    ---       Exit?
      00FF1369H   SYMBOL    CODE     ---       Icon
      00000A7EH   SYMBOL    EDATA    ---       flashRate
      00000A82H   SYMBOL    EDATA    BYTE      fq
      00000A83H   SYMBOL    EDATA    ---       text1

      00FE9F9BH   BLOCK     ECODE    ---       LVL=0
      00FE9F9BH   LINE      ECODE    ---       #35
      00FE9F9BH   LINE      ECODE    ---       #37
      00FE9FADH   LINE      ECODE    ---       #38
      00FE9FBBH   LINE      ECODE    ---       #39
      00FE9FDDH   LINE      ECODE    ---       #40
      00FE9FF7H   LINE      ECODE    ---       #41
      00FE9FFDH   LINE      ECODE    ---       #42
      ---         BLOCKEND  ---      ---       LVL=0

      00FEA003H   BLOCK     ECODE    ---       LVL=0
      00FEA003H   LINE      ECODE    ---       #44
      00FEA003H   LINE      ECODE    ---       #46
      00FEA00BH   LINE      ECODE    ---       #47
      ---         BLOCKEND  ---      ---       LVL=0

      00FEA013H   BLOCK     ECODE    ---       LVL=0
      00FEA013H   LINE      ECODE    ---       #54
      00FEA013H   LINE      ECODE    ---       #56
      00FEA01AH   LINE      ECODE    ---       #57
      00FEA022H   LINE      ECODE    ---       #58
      00FEA036H   LINE      ECODE    ---       #59
      ---         BLOCKEND  ---      ---       LVL=0

      00FEA058H   BLOCK     ECODE    ---       LVL=0
      00000A87H   SYMBOL    EDATA    BYTE      k
      00FEA058H   LINE      ECODE    ---       #66
      00FEA058H   LINE      ECODE    ---       #67
      00FEA058H   LINE      ECODE    ---       #69
      00FEA05CH   LINE      ECODE    ---       #70
      00FEA062H   LINE      ECODE    ---       #72
      00FEA06CH   LINE      ECODE    ---       #74
      00FEA074H   LINE      ECODE    ---       #75
      00FEA07EH   LINE      ECODE    ---       #76
      00FEA07EH   LINE      ECODE    ---       #78
      ---         BLOCKEND  ---      ---       LVL=0

      00FEA07FH   BLOCK     ECODE    ---       LVL=0
      R10         REGSYM    ---      BYTE      event
      00FEA07FH   LINE      ECODE    ---       #85
      00FEA081H   LINE      ECODE    ---       #87
      00FEA086H   LINE      ECODE    ---       #88
      00FEA08FH   LINE      ECODE    ---       #91
      00FEA094H   LINE      ECODE    ---       #93
      00FEA0A0H   LINE      ECODE    ---       #95
      00FEA0A5H   LINE      ECODE    ---       #96
      00FEA0ABH   LINE      ECODE    ---       #97
      00FEA0ADH   LINE      ECODE    ---       #99
      00FEA0B2H   LINE      ECODE    ---       #101
      00FEA0BEH   LINE      ECODE    ---       #102
      00FEA0C4H   LINE      ECODE    ---       #103
      00FEA0C4H   LINE      ECODE    ---       #104
      00FEA0EAH   LINE      ECODE    ---       #105
      00FEA10CH   LINE      ECODE    ---       #106
      00FEA114H   LINE      ECODE    ---       #108
      00FEA128H   LINE      ECODE    ---       #109
      00FEA128H   LINE      ECODE    ---       #112
L251 LINKER/LOCATER V4.66.93.0                                                        08/24/2022  19:19:43  PAGE 118


      ---         BLOCKEND  ---      ---       LVL=0

      00FEA129H   BLOCK     ECODE    ---       LVL=0
      R3          REGSYM    ---      BYTE      pageID
      00FEA129H   LINE      ECODE    ---       #113
      00FEA129H   LINE      ECODE    ---       #115
      ---         BLOCKEND  ---      ---       LVL=0

      ---         MODULE    ---      ---       page_hdc2080
      00FE9B48H   PUBLIC    ECODE    ---       pageRegister_page_hdc2080?
      00FF135DH   PUBLIC    CODE     ---       CH1
      000000D0H   SFRSYM    DATA     BYTE      PSW
      00000088H   SFRSYM    DATA     BYTE      TCON
      00000098H   SFRSYM    DATA     BYTE      SCON
      000000B8H   SFRSYM    DATA     BYTE      IP
      000000A8H   SFRSYM    DATA     BYTE      IE
      000000F8H   SFRSYM    DATA     BYTE      P7
      000000E8H   SFRSYM    DATA     BYTE      P6
      000000C8H   SFRSYM    DATA     BYTE      P5
      000000C0H   SFRSYM    DATA     BYTE      P4
      000000B0H   SFRSYM    DATA     BYTE      P3
      000000A0H   SFRSYM    DATA     BYTE      P2
      00000090H   SFRSYM    DATA     BYTE      P1
      00000080H   SFRSYM    DATA     BYTE      P0
      00FE9B38H   SYMBOL    ECODE    ---       Event?
      00FE9A27H   SYMBOL    ECODE    ---       delet?
      00FE9970H   SYMBOL    ECODE    ---       Setup?
      00FE9A5EH   SYMBOL    ECODE    ---       Loop?
      00FE9A37H   SYMBOL    ECODE    ---       Exit?
      00FF123BH   SYMBOL    CODE     ---       Icon
      000009D0H   SYMBOL    EDATA    ---       text
      000009E8H   SYMBOL    EDATA    ---       group1

      00FE9970H   BLOCK     ECODE    ---       LVL=0
      00FE9972H   BLOCK     ECODE    NEAR LAB  LVL=1
      R15         REGSYM    ---      BYTE      i
      ---         BLOCKEND  ---      ---       LVL=1
      00FE9970H   LINE      ECODE    ---       #39
      00FE9972H   LINE      ECODE    ---       #40
      00FE9972H   LINE      ECODE    ---       #42
      00FE9974H   LINE      ECODE    ---       #44
      00FE998DH   LINE      ECODE    ---       #45
      00FE99A8H   LINE      ECODE    ---       #46
      00FE99C3H   LINE      ECODE    ---       #47
      00FE99CAH   LINE      ECODE    ---       #48
      00FE99D4H   LINE      ECODE    ---       #49
      00FE99D6H   LINE      ECODE    ---       #51
      00FE99EBH   LINE      ECODE    ---       #52
      00FE99F2H   LINE      ECODE    ---       #53
      00FE9A00H   LINE      ECODE    ---       #54
      00FE9A1AH   LINE      ECODE    ---       #61
      00FE9A1EH   LINE      ECODE    ---       #64
      00FE9A24H   LINE      ECODE    ---       #67
      ---         BLOCKEND  ---      ---       LVL=0

      00FE9A27H   BLOCK     ECODE    ---       LVL=0
      00FE9A27H   LINE      ECODE    ---       #68
      00FE9A27H   LINE      ECODE    ---       #70
      00FE9A2FH   LINE      ECODE    ---       #71
      ---         BLOCKEND  ---      ---       LVL=0

      00FE9A37H   BLOCK     ECODE    ---       LVL=0
      00FE9A37H   LINE      ECODE    ---       #78
      00FE9A37H   LINE      ECODE    ---       #86
      00FE9A3CH   LINE      ECODE    ---       #88
L251 LINKER/LOCATER V4.66.93.0                                                        08/24/2022  19:19:43  PAGE 119


      ---         BLOCKEND  ---      ---       LVL=0

      00FE9A5EH   BLOCK     ECODE    ---       LVL=0
      00FE9A6DH   BLOCK     ECODE    NEAR LAB  LVL=1
      000009ECH   SYMBOL    EDATA    BYTE      step
      ---         BLOCKEND  ---      ---       LVL=1
      00FE9A5EH   LINE      ECODE    ---       #95
      00FE9A60H   LINE      ECODE    ---       #97
      00FE9A6DH   LINE      ECODE    ---       #98
      00FE9A6DH   LINE      ECODE    ---       #114
      00FE9A75H   LINE      ECODE    ---       #116
      00FE9A83H   LINE      ECODE    ---       #118
      00FE9AADH   LINE      ECODE    ---       #119
      00FE9AAFH   LINE      ECODE    ---       #120
      00FE9AB1H   LINE      ECODE    ---       #122
      00FE9AB6H   LINE      ECODE    ---       #124
      00FE9AC4H   LINE      ECODE    ---       #126
      00FE9AEEH   LINE      ECODE    ---       #127
      00FE9AF3H   LINE      ECODE    ---       #128
      00FE9AF3H   LINE      ECODE    ---       #134
      00FE9AFFH   LINE      ECODE    ---       #135
      00FE9B35H   LINE      ECODE    ---       #137
      ---         BLOCKEND  ---      ---       LVL=0

      00FE9B38H   BLOCK     ECODE    ---       LVL=0
      R7          REGSYM    ---      BYTE      event
      00FE9B38H   LINE      ECODE    ---       #145
      00FE9B3AH   LINE      ECODE    ---       #147
      00FE9B3EH   LINE      ECODE    ---       #148
      00FE9B47H   LINE      ECODE    ---       #149
      ---         BLOCKEND  ---      ---       LVL=0

      00FE9B48H   BLOCK     ECODE    ---       LVL=0
      R3          REGSYM    ---      BYTE      pageID
      00FE9B48H   LINE      ECODE    ---       #150
      00FE9B48H   LINE      ECODE    ---       #152
      ---         BLOCKEND  ---      ---       LVL=0

      ---         MODULE    ---      ---       page_ilink
      00FE2520H   PUBLIC    ECODE    ---       UART1_Isr?
      00FE257FH   PUBLIC    ECODE    ---       MuxSendString?
      00FE24D2H   PUBLIC    ECODE    ---       Uart1Reset?
      00FE2564H   PUBLIC    ECODE    ---       Uart1SendString?
      00FE2685H   PUBLIC    ECODE    ---       CommandProc?
      00FE2593H   PUBLIC    ECODE    ---       DecVaList?
      00FE2D9CH   PUBLIC    ECODE    ---       pageRegister_page_ilink?
      00000729H   PUBLIC    EDATA    ---       pVaList
      00FF0E5DH   PUBLIC    CODE     ---       CommandList
      000000D0H   SFRSYM    DATA     BYTE      PSW
      00000088H   SFRSYM    DATA     BYTE      TCON
      00000098H   SFRSYM    DATA     BYTE      SCON
      00000099H   SFRSYM    DATA     BYTE      SBUF
      00000098H.1 SFRSYM    DATA     BIT       TI
      00000098H.0 SFRSYM    DATA     BIT       RI
      000000B8H   SFRSYM    DATA     BYTE      IP
      000000A8H.4 SFRSYM    DATA     BIT       ES
      000000A8H   SFRSYM    DATA     BYTE      IE
      000000F8H   SFRSYM    DATA     BYTE      P7
      000000E8H   SFRSYM    DATA     BYTE      P6
      000000C8H   SFRSYM    DATA     BYTE      P5
      000000C0H   SFRSYM    DATA     BYTE      P4
      000000B0H   SFRSYM    DATA     BYTE      P3
      000000A0H   SFRSYM    DATA     BYTE      P2
      00000090H   SFRSYM    DATA     BYTE      P1
      00000080H   SFRSYM    DATA     BYTE      P0
L251 LINKER/LOCATER V4.66.93.0                                                        08/24/2022  19:19:43  PAGE 120


      00FE2D12H   SYMBOL    ECODE    ---       Event?
      00FE2A9CH   SYMBOL    ECODE    ---       delet?
      00FE29BBH   SYMBOL    ECODE    ---       Setup?
      00FE2B07H   SYMBOL    ECODE    ---       Loop?
      00FE2AACH   SYMBOL    ECODE    ---       Exit?
      000006E5H   SYMBOL    EDATA    ---       rx_buf
      000006E9H   SYMBOL    EDATA    ---       temp
      00000751H   SYMBOL    EDATA    ---       group1
      00000755H   SYMBOL    EDATA    ---       rx_tail
      00000759H   SYMBOL    EDATA    ---       text1
      0000075DH   SYMBOL    EDATA    ---       text2
      00FF0D20H   SYMBOL    CODE     ---       Icon
      00FF0E42H   SYMBOL    CODE     ---       MODE
      0001150FH   SYMBOL    XDATA    BYTE      uart1_busy_flag
      00011510H   SYMBOL    XDATA    BYTE      data_mode
      00011511H   SYMBOL    XDATA    BYTE      mode
      00011512H   SYMBOL    XDATA    ---       rx1_buf
      00011552H   SYMBOL    XDATA    BYTE      com_index
      00011553H   SYMBOL    XDATA    BYTE      rx1_cnt
      00011554H   SYMBOL    XDATA    BYTE      rx_head
      00011555H   SYMBOL    XDATA    ---       com_buf

      00FE24D2H   BLOCK     ECODE    ---       LVL=0
      R10         REGSYM    ---      BYTE      i
      00FE24D2H   LINE      ECODE    ---       #38
      00FE24D2H   LINE      ECODE    ---       #39
      00FE24D2H   LINE      ECODE    ---       #41
      00FE24D7H   LINE      ECODE    ---       #42
      00FE24DBH   LINE      ECODE    ---       #43
      00FE24DDH   LINE      ECODE    ---       #44
      00FE24F2H   LINE      ECODE    ---       #45
      00FE24F4H   LINE      ECODE    ---       #47
      00FE2502H   LINE      ECODE    ---       #48
      00FE250FH   LINE      ECODE    ---       #49
      00FE2516H   LINE      ECODE    ---       #50
      00FE251BH   LINE      ECODE    ---       #51
      00FE251FH   LINE      ECODE    ---       #52
      ---         BLOCKEND  ---      ---       LVL=0

      00FE2520H   BLOCK     ECODE    ---       LVL=0
      00FE2520H   LINE      ECODE    ---       #53
      00FE2528H   LINE      ECODE    ---       #55
      00FE252BH   LINE      ECODE    ---       #57
      00FE252DH   LINE      ECODE    ---       #58
      00FE2532H   LINE      ECODE    ---       #59
      00FE2532H   LINE      ECODE    ---       #60
      00FE2535H   LINE      ECODE    ---       #62
      00FE2537H   LINE      ECODE    ---       #63
      00FE254DH   LINE      ECODE    ---       #64
      00FE2556H   LINE      ECODE    ---       #65
      00FE255BH   LINE      ECODE    ---       #66
      00FE255BH   LINE      ECODE    ---       #67
      ---         BLOCKEND  ---      ---       LVL=0

      00FE2564H   BLOCK     ECODE    ---       LVL=0
      REG=0       REGSYM    ---      ---       str
      00FE2564H   LINE      ECODE    ---       #68
      00FE2564H   LINE      ECODE    ---       #70
      00FE2566H   LINE      ECODE    ---       #72
      00FE256CH   LINE      ECODE    ---       #73
      00FE2572H   LINE      ECODE    ---       #74
      00FE2577H   LINE      ECODE    ---       #75
      00FE2579H   LINE      ECODE    ---       #76
      00FE257EH   LINE      ECODE    ---       #77
      ---         BLOCKEND  ---      ---       LVL=0
L251 LINKER/LOCATER V4.66.93.0                                                        08/24/2022  19:19:43  PAGE 121



      00FE257FH   BLOCK     ECODE    ---       LVL=0
      REG=1       REGSYM    ---      ---       str
      00FE257FH   LINE      ECODE    ---       #78
      00FE2581H   LINE      ECODE    ---       #80
      00FE2587H   LINE      ECODE    ---       #81
      00FE258DH   LINE      ECODE    ---       #83
      ---         BLOCKEND  ---      ---       LVL=0

      00FE2593H   BLOCK     ECODE    ---       LVL=0
      REG=7       REGSYM    ---      ---       pInput
      REG=6       REGSYM    ---      ---       argv
      00FE2597H   BLOCK     ECODE    NEAR LAB  LVL=1
      R7          REGSYM    ---      BYTE      i
      R6          REGSYM    ---      BYTE      j
      ---         BLOCKEND  ---      ---       LVL=1
      00FE2593H   LINE      ECODE    ---       #87
      00FE2597H   LINE      ECODE    ---       #88
      00FE2597H   LINE      ECODE    ---       #92
      00FE2599H   LINE      ECODE    ---       #94
      00FE25AAH   LINE      ECODE    ---       #95
      00FE25B0H   LINE      ECODE    ---       #96
      00FE25B2H   LINE      ECODE    ---       #97
      00FE25B2H   LINE      ECODE    ---       #99
      00FE25B7H   LINE      ECODE    ---       #100
      00FE25B7H   LINE      ECODE    ---       #101
      00FE25DFH   LINE      ECODE    ---       #106
      00FE25DFH   LINE      ECODE    ---       #107
      00FE25DFH   LINE      ECODE    ---       #108
      00FE25E3H   LINE      ECODE    ---       #109
      00FE25E5H   LINE      ECODE    ---       #110
      00FE25E7H   LINE      ECODE    ---       #111
      00FE25ECH   LINE      ECODE    ---       #112
      00FE25EEH   LINE      ECODE    ---       #114
      00FE25F0H   LINE      ECODE    ---       #116
      00FE25F8H   LINE      ECODE    ---       #117
      00FE25F8H   LINE      ECODE    ---       #118
      00FE261EH   LINE      ECODE    ---       #123
      00FE2631H   LINE      ECODE    ---       #125
      00FE2638H   LINE      ECODE    ---       #126
      00FE2638H   LINE      ECODE    ---       #130
      00FE2638H   LINE      ECODE    ---       #131
      00FE2638H   LINE      ECODE    ---       #132
      00FE263AH   LINE      ECODE    ---       #133
      00FE263CH   LINE      ECODE    ---       #134
      00FE2641H   LINE      ECODE    ---       #135
      00FE2643H   LINE      ECODE    ---       #137
      00FE2648H   LINE      ECODE    ---       #138
      00FE2648H   LINE      ECODE    ---       #139
      00FE2670H   LINE      ECODE    ---       #144
      00FE2670H   LINE      ECODE    ---       #145
      00FE2670H   LINE      ECODE    ---       #146
      00FE2674H   LINE      ECODE    ---       #147
      00FE2676H   LINE      ECODE    ---       #148
      00FE2678H   LINE      ECODE    ---       #149
      00FE267DH   LINE      ECODE    ---       #150
      00FE2684H   LINE      ECODE    ---       #151
      00FE2684H   LINE      ECODE    ---       #152
      ---         BLOCKEND  ---      ---       LVL=0

      00FE2685H   BLOCK     ECODE    ---       LVL=0
      00FE2687H   BLOCK     ECODE    NEAR LAB  LVL=1
      R14         REGSYM    ---      CHAR      ucRecByte
      00FE26C3H   BLOCK     ECODE    NEAR LAB  LVL=2
      R15         REGSYM    ---      BYTE      i
L251 LINKER/LOCATER V4.66.93.0                                                        08/24/2022  19:19:43  PAGE 122


      00FE2915H   BLOCK     ECODE    NEAR LAB  LVL=3
      000007A7H   SYMBOL    EDATA    ---       pStep
      ---         BLOCKEND  ---      ---       LVL=3
      ---         BLOCKEND  ---      ---       LVL=2
      ---         BLOCKEND  ---      ---       LVL=1
      00FE2685H   LINE      ECODE    ---       #153
      00FE2687H   LINE      ECODE    ---       #154
      00FE2687H   LINE      ECODE    ---       #156
      00FE268AH   LINE      ECODE    ---       #158
      00FE269FH   LINE      ECODE    ---       #159
      00FE26AEH   LINE      ECODE    ---       #160
      00FE26B6H   LINE      ECODE    ---       #161
      00FE26C3H   LINE      ECODE    ---       #162
      00FE26C3H   LINE      ECODE    ---       #164
      00FE26D8H   LINE      ECODE    ---       #165
      00FE26E8H   LINE      ECODE    ---       #166
      00FE26EDH   LINE      ECODE    ---       #167
      00FE26F8H   LINE      ECODE    ---       #168
      00FE26F8H   LINE      ECODE    ---       #169
      00FE26FAH   LINE      ECODE    ---       #171
      00FE2718H   LINE      ECODE    ---       #173
      00FE2718H   LINE      ECODE    ---       #174
      00FE271FH   LINE      ECODE    ---       #176
      00FE2727H   LINE      ECODE    ---       #178
      00FE2727H   LINE      ECODE    ---       #179
      00FE2727H   LINE      ECODE    ---       #180
      00FE2754H   LINE      ECODE    ---       #182
      00FE2754H   LINE      ECODE    ---       #184
      00FE2766H   LINE      ECODE    ---       #185
      00FE2774H   LINE      ECODE    ---       #186
      00FE2782H   LINE      ECODE    ---       #187
      00FE2790H   LINE      ECODE    ---       #188
      00FE279EH   LINE      ECODE    ---       #189
      00FE27ACH   LINE      ECODE    ---       #190
      00FE27BCH   LINE      ECODE    ---       #191
      00FE27C8H   LINE      ECODE    ---       #192
      00FE27C8H   LINE      ECODE    ---       #193
      00FE27CBH   LINE      ECODE    ---       #195
      00FE27CBH   LINE      ECODE    ---       #197
      00FE27D9H   LINE      ECODE    ---       #198
      00FE27E7H   LINE      ECODE    ---       #199
      00FE27F5H   LINE      ECODE    ---       #200
      00FE2803H   LINE      ECODE    ---       #201
      00FE2811H   LINE      ECODE    ---       #202
      00FE2825H   LINE      ECODE    ---       #203
      00FE282DH   LINE      ECODE    ---       #204
      00FE282DH   LINE      ECODE    ---       #205
      00FE282FH   LINE      ECODE    ---       #207
      00FE282FH   LINE      ECODE    ---       #209
      00FE283DH   LINE      ECODE    ---       #210
      00FE284BH   LINE      ECODE    ---       #211
      00FE2859H   LINE      ECODE    ---       #212
      00FE2867H   LINE      ECODE    ---       #213
      00FE2873H   LINE      ECODE    ---       #214
      00FE2873H   LINE      ECODE    ---       #215
      00FE2875H   LINE      ECODE    ---       #217
      00FE2875H   LINE      ECODE    ---       #219
      00FE2883H   LINE      ECODE    ---       #220
      00FE288BH   LINE      ECODE    ---       #221
      00FE288EH   LINE      ECODE    ---       #223
      00FE288EH   LINE      ECODE    ---       #225
      00FE28D0H   LINE      ECODE    ---       #227
      00FE28D4H   LINE      ECODE    ---       #228
      00FE28D7H   LINE      ECODE    ---       #230
      00FE28D7H   LINE      ECODE    ---       #232
L251 LINKER/LOCATER V4.66.93.0                                                        08/24/2022  19:19:43  PAGE 123


      00FE290FH   LINE      ECODE    ---       #233
      00FE2913H   LINE      ECODE    ---       #234
      00FE2915H   LINE      ECODE    ---       #236
      00FE2915H   LINE      ECODE    ---       #237
      00FE2915H   LINE      ECODE    ---       #238
      00FE2921H   LINE      ECODE    ---       #239
      00FE292DH   LINE      ECODE    ---       #240
      00FE292FH   LINE      ECODE    ---       #242
      00FE2962H   LINE      ECODE    ---       #243
      00FE296AH   LINE      ECODE    ---       #244
      00FE2971H   LINE      ECODE    ---       #245
      00FE297DH   LINE      ECODE    ---       #246
      00FE297DH   LINE      ECODE    ---       #248
      00FE297DH   LINE      ECODE    ---       #249
      00FE297FH   LINE      ECODE    ---       #252
      00FE2998H   LINE      ECODE    ---       #253
      00FE29A1H   LINE      ECODE    ---       #254
      00FE29A6H   LINE      ECODE    ---       #255
      00FE29A6H   LINE      ECODE    ---       #256
      00FE29B8H   LINE      ECODE    ---       #257
      ---         BLOCKEND  ---      ---       LVL=0

      00FE29BBH   BLOCK     ECODE    ---       LVL=0
      00FE29BBH   LINE      ECODE    ---       #295
      00FE29BBH   LINE      ECODE    ---       #297
      00FE29C9H   LINE      ECODE    ---       #298
      00FE29DBH   LINE      ECODE    ---       #299
      00FE29EBH   LINE      ECODE    ---       #300
      00FE2A05H   LINE      ECODE    ---       #301
      00FE2A0FH   LINE      ECODE    ---       #302
      00FE2A1AH   LINE      ECODE    ---       #303
      00FE2A27H   LINE      ECODE    ---       #304
      00FE2A35H   LINE      ECODE    ---       #305
      00FE2A4FH   LINE      ECODE    ---       #312
      00FE2A53H   LINE      ECODE    ---       #315
      00FE2A59H   LINE      ECODE    ---       #318
      00FE2A5FH   LINE      ECODE    ---       #320
      00FE2A68H   LINE      ECODE    ---       #321
      00FE2A71H   LINE      ECODE    ---       #323
      00FE2A75H   LINE      ECODE    ---       #324
      00FE2A77H   LINE      ECODE    ---       #325
      00FE2A7AH   LINE      ECODE    ---       #326
      00FE2A7EH   LINE      ECODE    ---       #327
      00FE2A83H   LINE      ECODE    ---       #328
      00FE2A8FH   LINE      ECODE    ---       #329
      00FE2A9BH   LINE      ECODE    ---       #330
      ---         BLOCKEND  ---      ---       LVL=0

      00FE2A9CH   BLOCK     ECODE    ---       LVL=0
      00FE2A9CH   LINE      ECODE    ---       #331
      00FE2A9CH   LINE      ECODE    ---       #333
      00FE2AA4H   LINE      ECODE    ---       #334
      ---         BLOCKEND  ---      ---       LVL=0

      00FE2AACH   BLOCK     ECODE    ---       LVL=0
      00FE2AACH   LINE      ECODE    ---       #341
      00FE2AACH   LINE      ECODE    ---       #343
      00FE2AB8H   LINE      ECODE    ---       #350
      00FE2ABDH   LINE      ECODE    ---       #353
      00FE2AC2H   LINE      ECODE    ---       #355
      00FE2AC8H   LINE      ECODE    ---       #356
      00FE2ACBH   LINE      ECODE    ---       #358
      00FE2AD4H   LINE      ECODE    ---       #359
      00FE2ADCH   LINE      ECODE    ---       #360
      00FE2ADEH   LINE      ECODE    ---       #361
L251 LINKER/LOCATER V4.66.93.0                                                        08/24/2022  19:19:43  PAGE 124


      00FE2AE1H   LINE      ECODE    ---       #362
      00FE2AE5H   LINE      ECODE    ---       #363
      ---         BLOCKEND  ---      ---       LVL=0

      00FE2B07H   BLOCK     ECODE    ---       LVL=0
      00FE2B38H   BLOCK     ECODE    NEAR LAB  LVL=1
      00000761H   SYMBOL    EDATA    BYTE      step
      ---         BLOCKEND  ---      ---       LVL=1
      00FE2CDFH   BLOCK     ECODE    NEAR LAB  LVL=1
      R10         REGSYM    ---      BYTE      i
      ---         BLOCKEND  ---      ---       LVL=1
      00FE2B07H   LINE      ECODE    ---       #370
      00FE2B09H   LINE      ECODE    ---       #372
      00FE2B0DH   LINE      ECODE    ---       #373
      00FE2B19H   LINE      ECODE    ---       #375
      00FE2B1DH   LINE      ECODE    ---       #376
      00FE2B2BH   LINE      ECODE    ---       #378
      00FE2B38H   LINE      ECODE    ---       #379
      00FE2B38H   LINE      ECODE    ---       #395
      00FE2B40H   LINE      ECODE    ---       #397
      00FE2B4EH   LINE      ECODE    ---       #398
      00FE2B54H   LINE      ECODE    ---       #399
      00FE2B56H   LINE      ECODE    ---       #400
      00FE2B5BH   LINE      ECODE    ---       #402
      00FE2B69H   LINE      ECODE    ---       #404
      00FE2B6EH   LINE      ECODE    ---       #405
      00FE2BAEH   LINE      ECODE    ---       #406
      00FE2BB6H   LINE      ECODE    ---       #407
      00FE2BB6H   LINE      ECODE    ---       #410
      00FE2BB6H   LINE      ECODE    ---       #411
      00FE2BC3H   LINE      ECODE    ---       #416
      00FE2BCFH   LINE      ECODE    ---       #417
      00FE2BF5H   LINE      ECODE    ---       #419
      00FE2BF5H   LINE      ECODE    ---       #420
      00FE2BF8H   LINE      ECODE    ---       #422
      00FE2BFDH   LINE      ECODE    ---       #424
      00FE2C0AH   LINE      ECODE    ---       #426
      00FE2C16H   LINE      ECODE    ---       #427
      00FE2C5EH   LINE      ECODE    ---       #429
      00FE2C5EH   LINE      ECODE    ---       #430
      00FE2C60H   LINE      ECODE    ---       #432
      00FE2C68H   LINE      ECODE    ---       #434
      00FE2C75H   LINE      ECODE    ---       #439
      00FE2C81H   LINE      ECODE    ---       #440
      00FE2CAFH   LINE      ECODE    ---       #442
      00FE2CB7H   LINE      ECODE    ---       #443
      00FE2CB7H   LINE      ECODE    ---       #445
      00FE2CB9H   LINE      ECODE    ---       #448
      00FE2CC3H   LINE      ECODE    ---       #450
      00FE2CCDH   LINE      ECODE    ---       #452
      00FE2CD5H   LINE      ECODE    ---       #453
      00FE2CD5H   LINE      ECODE    ---       #454
      00FE2CDFH   LINE      ECODE    ---       #455
      00FE2CDFH   LINE      ECODE    ---       #457
      00FE2CE3H   LINE      ECODE    ---       #459
      00FE2CF6H   LINE      ECODE    ---       #460
      00FE2CFCH   LINE      ECODE    ---       #461
      00FE2D03H   LINE      ECODE    ---       #462
      00FE2D07H   LINE      ECODE    ---       #463
      00FE2D0FH   LINE      ECODE    ---       #464
      00FE2D0FH   LINE      ECODE    ---       #466
      00FE2D0FH   LINE      ECODE    ---       #467
      ---         BLOCKEND  ---      ---       LVL=0

      00FE2D12H   BLOCK     ECODE    ---       LVL=0
L251 LINKER/LOCATER V4.66.93.0                                                        08/24/2022  19:19:43  PAGE 125


      R10         REGSYM    ---      BYTE      event
      00FE2D12H   LINE      ECODE    ---       #474
      00FE2D14H   LINE      ECODE    ---       #476
      00FE2D19H   LINE      ECODE    ---       #477
      00FE2D22H   LINE      ECODE    ---       #480
      00FE2D27H   LINE      ECODE    ---       #482
      00FE2D30H   LINE      ECODE    ---       #483
      00FE2D31H   LINE      ECODE    ---       #484
      00FE2D33H   LINE      ECODE    ---       #485
      00FE2D38H   LINE      ECODE    ---       #487
      00FE2D41H   LINE      ECODE    ---       #488
      00FE2D47H   LINE      ECODE    ---       #489
      00FE2D47H   LINE      ECODE    ---       #490
      00FE2D61H   LINE      ECODE    ---       #491
      00FE2D67H   LINE      ECODE    ---       #493
      00FE2D73H   LINE      ECODE    ---       #494
      00FE2D7BH   LINE      ECODE    ---       #495
      00FE2D7DH   LINE      ECODE    ---       #496
      00FE2D80H   LINE      ECODE    ---       #498
      00FE2D8CH   LINE      ECODE    ---       #499
      00FE2D98H   LINE      ECODE    ---       #500
      00FE2D98H   LINE      ECODE    ---       #501
      00FE2D9CH   LINE      ECODE    ---       #502
      00FE2D9CH   LINE      ECODE    ---       #503
      ---         BLOCKEND  ---      ---       LVL=0

      00FE2D9CH   BLOCK     ECODE    ---       LVL=0
      R3          REGSYM    ---      BYTE      pageID
      00FE2D9CH   LINE      ECODE    ---       #504
      00FE2D9CH   LINE      ECODE    ---       #506
      ---         BLOCKEND  ---      ---       LVL=0

      ---         MODULE    ---      ---       page_lsm6dsl
      00FE96EFH   PUBLIC    ECODE    ---       pageRegister_page_lsm6dsl?
      000000D0H   SFRSYM    DATA     BYTE      PSW
      00000088H   SFRSYM    DATA     BYTE      TCON
      00000098H   SFRSYM    DATA     BYTE      SCON
      000000B8H   SFRSYM    DATA     BYTE      IP
      000000A8H   SFRSYM    DATA     BYTE      IE
      000000F8H   SFRSYM    DATA     BYTE      P7
      000000E8H   SFRSYM    DATA     BYTE      P6
      000000C8H   SFRSYM    DATA     BYTE      P5
      000000C0H   SFRSYM    DATA     BYTE      P4
      000000B0H   SFRSYM    DATA     BYTE      P3
      000000A0H   SFRSYM    DATA     BYTE      P2
      00000090H   SFRSYM    DATA     BYTE      P1
      00000080H   SFRSYM    DATA     BYTE      P0
      00FE96BDH   SYMBOL    ECODE    ---       Event?
      00FE95E3H   SYMBOL    ECODE    ---       delet?
      00FE94F3H   SYMBOL    ECODE    ---       Setup?
      00FE9627H   SYMBOL    ECODE    ---       Loop?
      00FE95EBH   SYMBOL    ECODE    ---       Exit?
      00FF148BH   SYMBOL    CODE     ---       Icon
      00000A09H   SYMBOL    EDATA    ---       slider1
      00000A0DH   SYMBOL    EDATA    ---       slider2
      00000A11H   SYMBOL    EDATA    ---       group1
      00000A15H   SYMBOL    EDATA    ---       g
      00000A1BH   SYMBOL    EDATA    ---       text1
      00000A1FH   SYMBOL    EDATA    ---       text2

      00FE94F3H   BLOCK     ECODE    ---       LVL=0
      00FE94F3H   LINE      ECODE    ---       #40
      00FE94F3H   LINE      ECODE    ---       #42
      00FE9501H   LINE      ECODE    ---       #43
      00FE9511H   LINE      ECODE    ---       #44
L251 LINKER/LOCATER V4.66.93.0                                                        08/24/2022  19:19:43  PAGE 126


      00FE9521H   LINE      ECODE    ---       #45
      00FE9531H   LINE      ECODE    ---       #46
      00FE954FH   LINE      ECODE    ---       #47
      00FE956DH   LINE      ECODE    ---       #48
      00FE9577H   LINE      ECODE    ---       #49
      00FE9582H   LINE      ECODE    ---       #50
      00FE958FH   LINE      ECODE    ---       #51
      00FE959CH   LINE      ECODE    ---       #52
      00FE95A9H   LINE      ECODE    ---       #53
      00FE95B7H   LINE      ECODE    ---       #54
      00FE95D1H   LINE      ECODE    ---       #55
      00FE95DAH   LINE      ECODE    ---       #56
      ---         BLOCKEND  ---      ---       LVL=0

      00FE95E3H   BLOCK     ECODE    ---       LVL=0
      00FE95E3H   LINE      ECODE    ---       #58
      00FE95E3H   LINE      ECODE    ---       #60
      ---         BLOCKEND  ---      ---       LVL=0

      00FE95EBH   BLOCK     ECODE    ---       LVL=0
      00FE95EBH   LINE      ECODE    ---       #68
      00FE95EBH   LINE      ECODE    ---       #70
      00FE95F1H   LINE      ECODE    ---       #71
      00FE95F4H   LINE      ECODE    ---       #73
      00FE95FDH   LINE      ECODE    ---       #74
      00FE9605H   LINE      ECODE    ---       #75
      ---         BLOCKEND  ---      ---       LVL=0

      00FE9627H   BLOCK     ECODE    ---       LVL=0
      00FE9627H   LINE      ECODE    ---       #82
      00FE9627H   LINE      ECODE    ---       #84
      00FE962FH   LINE      ECODE    ---       #93
      00FE962FH   LINE      ECODE    ---       #94
      00FE963CH   LINE      ECODE    ---       #96
      00FE9688H   LINE      ECODE    ---       #97
      00FE96A2H   LINE      ECODE    ---       #98
      00FE96BCH   LINE      ECODE    ---       #100
      ---         BLOCKEND  ---      ---       LVL=0

      00FE96BDH   BLOCK     ECODE    ---       LVL=0
      R7          REGSYM    ---      BYTE      event
      00FE96BDH   LINE      ECODE    ---       #108
      00FE96BFH   LINE      ECODE    ---       #110
      00FE96C3H   LINE      ECODE    ---       #111
      00FE96CCH   LINE      ECODE    ---       #112
      00FE96D0H   LINE      ECODE    ---       #114
      00FE96DAH   LINE      ECODE    ---       #115
      00FE96E4H   LINE      ECODE    ---       #116
      00FE96EEH   LINE      ECODE    ---       #117
      ---         BLOCKEND  ---      ---       LVL=0

      00FE96EFH   BLOCK     ECODE    ---       LVL=0
      R3          REGSYM    ---      BYTE      pageID
      00FE96EFH   LINE      ECODE    ---       #119
      00FE96EFH   LINE      ECODE    ---       #121
      ---         BLOCKEND  ---      ---       LVL=0

      ---         MODULE    ---      ---       page_magcal
      00FE8FC2H   PUBLIC    ECODE    ---       pageRegister_page_magcal?
      000000D0H   SFRSYM    DATA     BYTE      PSW
      00000088H   SFRSYM    DATA     BYTE      TCON
      00000098H   SFRSYM    DATA     BYTE      SCON
      000000B8H   SFRSYM    DATA     BYTE      IP
      000000A8H   SFRSYM    DATA     BYTE      IE
      000000F8H   SFRSYM    DATA     BYTE      P7
L251 LINKER/LOCATER V4.66.93.0                                                        08/24/2022  19:19:43  PAGE 127


      000000E8H   SFRSYM    DATA     BYTE      P6
      000000C8H   SFRSYM    DATA     BYTE      P5
      000000C0H   SFRSYM    DATA     BYTE      P4
      000000B0H   SFRSYM    DATA     BYTE      P3
      000000A0H   SFRSYM    DATA     BYTE      P2
      00000090H   SFRSYM    DATA     BYTE      P1
      00000080H   SFRSYM    DATA     BYTE      P0
      00FE8FB2H   SYMBOL    ECODE    ---       Event?
      00FE8D6BH   SYMBOL    ECODE    ---       Setup?
      00FE8E1AH   SYMBOL    ECODE    ---       Loop?
      00FE8DBFH   SYMBOL    ECODE    ---       Exit?
      00000A88H   SYMBOL    EDATA    ---       canvas1
      00000A8CH   SYMBOL    EDATA    WORD      i
      00000A8EH   SYMBOL    EDATA    ---       text1

      00FE8D6BH   BLOCK     ECODE    ---       LVL=0
      00FE8D6BH   LINE      ECODE    ---       #12
      00FE8D6BH   LINE      ECODE    ---       #14
      00FE8D79H   LINE      ECODE    ---       #15
      00FE8D87H   LINE      ECODE    ---       #16
      00FE8D98H   LINE      ECODE    ---       #18
      00FE8D9CH   LINE      ECODE    ---       #19
      00FE8DA2H   LINE      ECODE    ---       #20
      00FE8DA6H   LINE      ECODE    ---       #22
      00FE8DAFH   LINE      ECODE    ---       #23
      00FE8DB8H   LINE      ECODE    ---       #24
      00FE8DBEH   LINE      ECODE    ---       #25
      ---         BLOCKEND  ---      ---       LVL=0

      00FE8DBFH   BLOCK     ECODE    ---       LVL=0
      00FE8DBFH   LINE      ECODE    ---       #38
      00FE8DBFH   LINE      ECODE    ---       #41
      00FE8DCBH   LINE      ECODE    ---       #42
      00FE8DD7H   LINE      ECODE    ---       #43
      00FE8DDCH   LINE      ECODE    ---       #45
      00FE8DE8H   LINE      ECODE    ---       #46
      00FE8DEEH   LINE      ECODE    ---       #47
      00FE8DF1H   LINE      ECODE    ---       #49
      00FE8DFAH   LINE      ECODE    ---       #50
      00FE8E02H   LINE      ECODE    ---       #51
      00FE8E0AH   LINE      ECODE    ---       #52
      00FE8E12H   LINE      ECODE    ---       #53
      ---         BLOCKEND  ---      ---       LVL=0

      00FE8E1AH   BLOCK     ECODE    ---       LVL=0
      00FE8E1AH   LINE      ECODE    ---       #60
      00FE8E1CH   LINE      ECODE    ---       #62
      00FE8E24H   LINE      ECODE    ---       #68
      00FE8E24H   LINE      ECODE    ---       #69
      00FE8E31H   LINE      ECODE    ---       #71
      00FE8E3BH   LINE      ECODE    ---       #72
      00FE8E41H   LINE      ECODE    ---       #74
      00FE8E4AH   LINE      ECODE    ---       #75
      00FE8E4AH   LINE      ECODE    ---       #76
      00FE8E60H   LINE      ECODE    ---       #78
      00FE8EA0H   LINE      ECODE    ---       #79
      00FE8EE0H   LINE      ECODE    ---       #80
      00FE8F20H   LINE      ECODE    ---       #81
      00FE8F60H   LINE      ECODE    ---       #87
      00FE8F6CH   LINE      ECODE    ---       #88
      00FE8F9EH   LINE      ECODE    ---       #90
      00FE8FA0H   LINE      ECODE    ---       #91
      00FE8FA6H   LINE      ECODE    ---       #93
      00FE8FAFH   LINE      ECODE    ---       #94
      00FE8FAFH   LINE      ECODE    ---       #96
L251 LINKER/LOCATER V4.66.93.0                                                        08/24/2022  19:19:43  PAGE 128


      ---         BLOCKEND  ---      ---       LVL=0

      00FE8FB2H   BLOCK     ECODE    ---       LVL=0
      R7          REGSYM    ---      BYTE      event
      00FE8FB2H   LINE      ECODE    ---       #103
      00FE8FB4H   LINE      ECODE    ---       #105
      00FE8FB8H   LINE      ECODE    ---       #106
      00FE8FC1H   LINE      ECODE    ---       #107
      ---         BLOCKEND  ---      ---       LVL=0

      00FE8FC2H   BLOCK     ECODE    ---       LVL=0
      R3          REGSYM    ---      BYTE      pageID
      00FE8FC2H   LINE      ECODE    ---       #108
      00FE8FC2H   LINE      ECODE    ---       #110
      ---         BLOCKEND  ---      ---       LVL=0

      ---         MODULE    ---      ---       page_menu
      00FE7DCBH   PUBLIC    ECODE    ---       pageRegister_page_menu?
      000000D0H   SFRSYM    DATA     BYTE      PSW
      00000088H   SFRSYM    DATA     BYTE      TCON
      00000098H   SFRSYM    DATA     BYTE      SCON
      000000B8H   SFRSYM    DATA     BYTE      IP
      000000A8H   SFRSYM    DATA     BYTE      IE
      000000F8H   SFRSYM    DATA     BYTE      P7
      000000E8H   SFRSYM    DATA     BYTE      P6
      000000C8H   SFRSYM    DATA     BYTE      P5
      000000C0H   SFRSYM    DATA     BYTE      P4
      000000B0H   SFRSYM    DATA     BYTE      P3
      000000A0H   SFRSYM    DATA     BYTE      P2
      00000090H   SFRSYM    DATA     BYTE      P1
      00000080H   SFRSYM    DATA     BYTE      P0
      00FE7CF7H   SYMBOL    ECODE    ---       Event?
      00FE7C0BH   SYMBOL    ECODE    ---       delet?
      00FE7A65H   SYMBOL    ECODE    ---       Setup?
      00FE7C88H   SYMBOL    ECODE    ---       Loop?
      00FE7C23H   SYMBOL    ECODE    ---       Exit?
      00000762H   SYMBOL    EDATA    BYTE      page_index
      00000763H   SYMBOL    EDATA    ---       title
      00000767H   SYMBOL    EDATA    ---       icon
      00000797H   SYMBOL    EDATA    ---       group1
      0000079BH   SYMBOL    EDATA    ---       group2
      0000079FH   SYMBOL    EDATA    ---       bmp1
      000007A3H   SYMBOL    EDATA    ---       text1

      00FE7A65H   BLOCK     ECODE    ---       LVL=0
      R15         REGSYM    ---      BYTE      condition
      00FE7A69H   BLOCK     ECODE    NEAR LAB  LVL=1
      R14         REGSYM    ---      BYTE      i
      ---         BLOCKEND  ---      ---       LVL=1
      00FE7A65H   LINE      ECODE    ---       #16
      00FE7A69H   LINE      ECODE    ---       #17
      00FE7A69H   LINE      ECODE    ---       #19
      00FE7A73H   LINE      ECODE    ---       #21
      00FE7A75H   LINE      ECODE    ---       #23
      00FE7A9EH   LINE      ECODE    ---       #24
      00FE7AAFH   LINE      ECODE    ---       #25
      00FE7AB6H   LINE      ECODE    ---       #26
      00FE7ACEH   LINE      ECODE    ---       #27
      00FE7B02H   LINE      ECODE    ---       #29
      00FE7B11H   LINE      ECODE    ---       #30
      00FE7B28H   LINE      ECODE    ---       #32
      00FE7B4AH   LINE      ECODE    ---       #34
      00FE7B57H   LINE      ECODE    ---       #35
      00FE7B87H   LINE      ECODE    ---       #37
      00FE7B9DH   LINE      ECODE    ---       #39
L251 LINKER/LOCATER V4.66.93.0                                                        08/24/2022  19:19:43  PAGE 129


      00FE7BA7H   LINE      ECODE    ---       #40
      00FE7BB2H   LINE      ECODE    ---       #41
      00FE7BBFH   LINE      ECODE    ---       #42
      00FE7BCCH   LINE      ECODE    ---       #43
      00FE7BE4H   LINE      ECODE    ---       #44
      00FE7C08H   LINE      ECODE    ---       #45
      ---         BLOCKEND  ---      ---       LVL=0

      00FE7C0BH   BLOCK     ECODE    ---       LVL=0
      00FE7C0BH   LINE      ECODE    ---       #46
      00FE7C0BH   LINE      ECODE    ---       #48
      00FE7C13H   LINE      ECODE    ---       #49
      00FE7C1BH   LINE      ECODE    ---       #50
      ---         BLOCKEND  ---      ---       LVL=0

      00FE7C23H   BLOCK     ECODE    ---       LVL=0
      R15         REGSYM    ---      BYTE      condition
      00FE7C23H   LINE      ECODE    ---       #57
      00FE7C27H   LINE      ECODE    ---       #59
      00FE7C4BH   LINE      ECODE    ---       #60
      00FE7C85H   LINE      ECODE    ---       #61
      ---         BLOCKEND  ---      ---       LVL=0

      00FE7C88H   BLOCK     ECODE    ---       LVL=0
      00FE7C88H   LINE      ECODE    ---       #67
      00FE7C88H   LINE      ECODE    ---       #69
      00FE7C92H   LINE      ECODE    ---       #71
      00FE7C9EH   LINE      ECODE    ---       #72
      00FE7CACH   LINE      ECODE    ---       #73
      00FE7CDCH   LINE      ECODE    ---       #74
      00FE7CEAH   LINE      ECODE    ---       #75
      00FE7CF6H   LINE      ECODE    ---       #76
      ---         BLOCKEND  ---      ---       LVL=0

      00FE7CF7H   BLOCK     ECODE    ---       LVL=0
      R7          REGSYM    ---      BYTE      event
      00FE7D1BH   BLOCK     ECODE    NEAR LAB  LVL=1
      WR14        REGSYM    ---      INT       icon_move
      ---         BLOCKEND  ---      ---       LVL=1
      00FE7CF7H   LINE      ECODE    ---       #84
      00FE7CFBH   LINE      ECODE    ---       #86
      00FE7D04H   LINE      ECODE    ---       #88
      00FE7D08H   LINE      ECODE    ---       #89
      00FE7D0AH   LINE      ECODE    ---       #90
      00FE7D0EH   LINE      ECODE    ---       #92
      00FE7D18H   LINE      ECODE    ---       #93
      00FE7D1BH   LINE      ECODE    ---       #95
      00FE7D1BH   LINE      ECODE    ---       #96
      00FE7D1BH   LINE      ECODE    ---       #98
      00FE7D1FH   LINE      ECODE    ---       #100
      00FE7D2BH   LINE      ECODE    ---       #102
      00FE7D31H   LINE      ECODE    ---       #103
      00FE7D35H   LINE      ECODE    ---       #104
      00FE7D37H   LINE      ECODE    ---       #106
      00FE7D3BH   LINE      ECODE    ---       #107
      00FE7D3DH   LINE      ECODE    ---       #108
      00FE7D41H   LINE      ECODE    ---       #110
      00FE7D4DH   LINE      ECODE    ---       #112
      00FE7D53H   LINE      ECODE    ---       #113
      00FE7D57H   LINE      ECODE    ---       #114
      00FE7D59H   LINE      ECODE    ---       #116
      00FE7D5DH   LINE      ECODE    ---       #117
      00FE7D5DH   LINE      ECODE    ---       #118
      00FE7D75H   LINE      ECODE    ---       #119
      00FE7DA6H   LINE      ECODE    ---       #120
L251 LINKER/LOCATER V4.66.93.0                                                        08/24/2022  19:19:43  PAGE 130


      00FE7DC8H   LINE      ECODE    ---       #121
      00FE7DC8H   LINE      ECODE    ---       #122
      ---         BLOCKEND  ---      ---       LVL=0

      00FE7DCBH   BLOCK     ECODE    ---       LVL=0
      R3          REGSYM    ---      BYTE      pageID
      00FE7DCBH   LINE      ECODE    ---       #123
      00FE7DCBH   LINE      ECODE    ---       #125
      ---         BLOCKEND  ---      ---       LVL=0

      ---         MODULE    ---      ---       page_pedometer
      00FE7683H   PUBLIC    ECODE    ---       pageRegister_page_pedometer?
      000000D0H   SFRSYM    DATA     BYTE      PSW
      00000088H   SFRSYM    DATA     BYTE      TCON
      00000098H   SFRSYM    DATA     BYTE      SCON
      000000B8H   SFRSYM    DATA     BYTE      IP
      000000A8H   SFRSYM    DATA     BYTE      IE
      000000F8H   SFRSYM    DATA     BYTE      P7
      000000E8H   SFRSYM    DATA     BYTE      P6
      000000C8H   SFRSYM    DATA     BYTE      P5
      000000C0H   SFRSYM    DATA     BYTE      P4
      000000B0H   SFRSYM    DATA     BYTE      P3
      000000A0H   SFRSYM    DATA     BYTE      P2
      00000090H   SFRSYM    DATA     BYTE      P1
      00000080H   SFRSYM    DATA     BYTE      P0
      00FE7619H   SYMBOL    ECODE    ---       Event?
      00FE73CAH   SYMBOL    ECODE    ---       delet?
      00FE72FDH   SYMBOL    ECODE    ---       Setup?
      00FE7404H   SYMBOL    ECODE    ---       Loop?
      00FE73DAH   SYMBOL    ECODE    ---       Exit?
      00FF1101H   SYMBOL    CODE     ---       Icon
      00FF1223H   SYMBOL    CODE     ---       ch1
      00FF122FH   SYMBOL    CODE     ---       ch2
      00000A23H   SYMBOL    EDATA    BYTE      page
      00000A24H   SYMBOL    EDATA    ---       canvas1
      00000A28H   SYMBOL    EDATA    FLOAT     a
      00000A2CH   SYMBOL    EDATA    ---       group1
      00000A30H   SYMBOL    EDATA    ---       text1
      00000A34H   SYMBOL    EDATA    ---       text2
      00000A38H   SYMBOL    EDATA    ---       text3

      00FE72FDH   BLOCK     ECODE    ---       LVL=0
      00FE72FDH   LINE      ECODE    ---       #39
      00FE72FDH   LINE      ECODE    ---       #41
      00FE730BH   LINE      ECODE    ---       #42
      00FE7319H   LINE      ECODE    ---       #43
      00FE7329H   LINE      ECODE    ---       #44
      00FE7339H   LINE      ECODE    ---       #45
      00FE7347H   LINE      ECODE    ---       #46
      00FE735AH   LINE      ECODE    ---       #47
      00FE7364H   LINE      ECODE    ---       #48
      00FE736FH   LINE      ECODE    ---       #49
      00FE737CH   LINE      ECODE    ---       #50
      00FE7389H   LINE      ECODE    ---       #51
      00FE7396H   LINE      ECODE    ---       #52
      00FE73A4H   LINE      ECODE    ---       #53
      00FE73BEH   LINE      ECODE    ---       #54
      00FE73C4H   LINE      ECODE    ---       #55
      00FE73C9H   LINE      ECODE    ---       #56
      ---         BLOCKEND  ---      ---       LVL=0

      00FE73CAH   BLOCK     ECODE    ---       LVL=0
      00FE73CAH   LINE      ECODE    ---       #57
      00FE73CAH   LINE      ECODE    ---       #59
      00FE73D2H   LINE      ECODE    ---       #60
L251 LINKER/LOCATER V4.66.93.0                                                        08/24/2022  19:19:43  PAGE 131


      ---         BLOCKEND  ---      ---       LVL=0

      00FE73DAH   BLOCK     ECODE    ---       LVL=0
      00FE73DAH   LINE      ECODE    ---       #67
      00FE73DAH   LINE      ECODE    ---       #69
      00FE73E2H   LINE      ECODE    ---       #70
      ---         BLOCKEND  ---      ---       LVL=0

      00FE7404H   BLOCK     ECODE    ---       LVL=0
      00FE746EH   BLOCK     ECODE    NEAR LAB  LVL=1
      000007A7H   SYMBOL    EDATA    BYTE      i
      000007A8H   SYMBOL    EDATA    BYTE      y
      WR14        REGSYM    ---      WORD      max_step
      DR12        REGSYM    ---      FLOAT     scale
      000007A9H   SYMBOL    EDATA    FLOAT     w
      000007ADH   SYMBOL    EDATA    ---       str
      ---         BLOCKEND  ---      ---       LVL=1
      00FE7404H   LINE      ECODE    ---       #77
      00FE7406H   LINE      ECODE    ---       #79
      00FE7410H   LINE      ECODE    ---       #81
      00FE7436H   LINE      ECODE    ---       #82
      00FE744EH   LINE      ECODE    ---       #83
      00FE744EH   LINE      ECODE    ---       #84
      00FE745BH   LINE      ECODE    ---       #86
      00FE746EH   LINE      ECODE    ---       #87
      00FE746EH   LINE      ECODE    ---       #88
      00FE7473H   LINE      ECODE    ---       #89
      00FE7475H   LINE      ECODE    ---       #92
      00FE747DH   LINE      ECODE    ---       #93
      00FE7482H   LINE      ECODE    ---       #95
      00FE7498H   LINE      ECODE    ---       #96
      00FE7498H   LINE      ECODE    ---       #97
      00FE74C8H   LINE      ECODE    ---       #98
      00FE74DDH   LINE      ECODE    ---       #99
      00FE74F7H   LINE      ECODE    ---       #100
      00FE74F9H   LINE      ECODE    ---       #101
      00FE7503H   LINE      ECODE    ---       #102
      00FE7514H   LINE      ECODE    ---       #103
      00FE7529H   LINE      ECODE    ---       #104
      00FE7532H   LINE      ECODE    ---       #106
      00FE754DH   LINE      ECODE    ---       #107
      00FE754DH   LINE      ECODE    ---       #108
      00FE7571H   LINE      ECODE    ---       #109
      00FE758DH   LINE      ECODE    ---       #110
      00FE75B7H   LINE      ECODE    ---       #111
      00FE75E7H   LINE      ECODE    ---       #112
      00FE75F1H   LINE      ECODE    ---       #113
      00FE7602H   LINE      ECODE    ---       #114
      00FE7616H   LINE      ECODE    ---       #115
      00FE7616H   LINE      ECODE    ---       #117
      ---         BLOCKEND  ---      ---       LVL=0

      00FE7619H   BLOCK     ECODE    ---       LVL=0
      R10         REGSYM    ---      BYTE      event
      00FE7619H   LINE      ECODE    ---       #124
      00FE761BH   LINE      ECODE    ---       #126
      00FE7625H   LINE      ECODE    ---       #127
      00FE762EH   LINE      ECODE    ---       #128
      00FE7633H   LINE      ECODE    ---       #130
      00FE7639H   LINE      ECODE    ---       #132
      00FE763FH   LINE      ECODE    ---       #133
      00FE7655H   LINE      ECODE    ---       #134
      00FE7657H   LINE      ECODE    ---       #136
      00FE765CH   LINE      ECODE    ---       #138
      00FE7663H   LINE      ECODE    ---       #140
L251 LINKER/LOCATER V4.66.93.0                                                        08/24/2022  19:19:43  PAGE 132


      00FE7668H   LINE      ECODE    ---       #141
      00FE7682H   LINE      ECODE    ---       #142
      00FE7682H   LINE      ECODE    ---       #144
      ---         BLOCKEND  ---      ---       LVL=0

      00FE7683H   BLOCK     ECODE    ---       LVL=0
      R3          REGSYM    ---      BYTE      pageID
      00FE7683H   LINE      ECODE    ---       #145
      00FE7683H   LINE      ECODE    ---       #147
      ---         BLOCKEND  ---      ---       LVL=0

      ---         MODULE    ---      ---       page_settime
      00FE6A6FH   PUBLIC    ECODE    ---       pageRegister_page_settime?
      000000D0H   SFRSYM    DATA     BYTE      PSW
      00000088H   SFRSYM    DATA     BYTE      TCON
      00000098H   SFRSYM    DATA     BYTE      SCON
      000000B8H   SFRSYM    DATA     BYTE      IP
      000000A8H   SFRSYM    DATA     BYTE      IE
      000000F8H   SFRSYM    DATA     BYTE      P7
      000000E8H   SFRSYM    DATA     BYTE      P6
      000000C8H   SFRSYM    DATA     BYTE      P5
      000000C0H   SFRSYM    DATA     BYTE      P4
      000000B0H   SFRSYM    DATA     BYTE      P3
      000000A0H   SFRSYM    DATA     BYTE      P2
      00000090H   SFRSYM    DATA     BYTE      P1
      00000080H   SFRSYM    DATA     BYTE      P0
      00FE6908H   SYMBOL    ECODE    ---       Event?
      00FE67BAH   SYMBOL    ECODE    ---       delet?
      00FE662EH   SYMBOL    ECODE    ---       Setup?
      00FE67F8H   SYMBOL    ECODE    ---       Loop?
      00FE67CAH   SYMBOL    ECODE    ---       Exit?
      00FF195CH   SYMBOL    CODE     ---       WEEKDAY
      00000900H   SYMBOL    EDATA    ---       text_time
      0000091CH   SYMBOL    EDATA    ---       group1
      00000920H   SYMBOL    EDATA    ---       text1
      00000924H   SYMBOL    EDATA    ---       text2
      00000928H   SYMBOL    EDATA    ---       text3
      0000092CH   SYMBOL    EDATA    ---       text4
      0001165DH   SYMBOL    XDATA    ---       set_time

      00FE662EH   BLOCK     ECODE    ---       LVL=0
      00FE6630H   BLOCK     ECODE    NEAR LAB  LVL=1
      R15         REGSYM    ---      BYTE      i
      ---         BLOCKEND  ---      ---       LVL=1
      00FE662EH   LINE      ECODE    ---       #23
      00FE6630H   LINE      ECODE    ---       #24
      00FE6630H   LINE      ECODE    ---       #26
      00FE663CH   LINE      ECODE    ---       #27
      00FE6646H   LINE      ECODE    ---       #28
      00FE6656H   LINE      ECODE    ---       #29
      00FE6668H   LINE      ECODE    ---       #30
      00FE667AH   LINE      ECODE    ---       #31
      00FE668AH   LINE      ECODE    ---       #32
      00FE669AH   LINE      ECODE    ---       #33
      00FE66ACH   LINE      ECODE    ---       #34
      00FE66BCH   LINE      ECODE    ---       #35
      00FE66BEH   LINE      ECODE    ---       #37
      00FE66D4H   LINE      ECODE    ---       #38
      00FE66DBH   LINE      ECODE    ---       #39
      00FE66E9H   LINE      ECODE    ---       #40
      00FE66F9H   LINE      ECODE    ---       #41
      00FE6709H   LINE      ECODE    ---       #42
      00FE671BH   LINE      ECODE    ---       #43
      00FE672BH   LINE      ECODE    ---       #44
      00FE673BH   LINE      ECODE    ---       #45
L251 LINKER/LOCATER V4.66.93.0                                                        08/24/2022  19:19:43  PAGE 133


      00FE674BH   LINE      ECODE    ---       #46
      00FE675BH   LINE      ECODE    ---       #47
      00FE6768H   LINE      ECODE    ---       #48
      00FE6775H   LINE      ECODE    ---       #49
      00FE6782H   LINE      ECODE    ---       #50
      00FE678FH   LINE      ECODE    ---       #51
      00FE679DH   LINE      ECODE    ---       #52
      00FE67B7H   LINE      ECODE    ---       #53
      ---         BLOCKEND  ---      ---       LVL=0

      00FE67BAH   BLOCK     ECODE    ---       LVL=0
      00FE67BAH   LINE      ECODE    ---       #54
      00FE67BAH   LINE      ECODE    ---       #56
      00FE67C2H   LINE      ECODE    ---       #57
      ---         BLOCKEND  ---      ---       LVL=0

      00FE67CAH   BLOCK     ECODE    ---       LVL=0
      00FE67CAH   LINE      ECODE    ---       #64
      00FE67CAH   LINE      ECODE    ---       #66
      00FE67D6H   LINE      ECODE    ---       #67
      ---         BLOCKEND  ---      ---       LVL=0

      00FE67F8H   BLOCK     ECODE    ---       LVL=0
      00FE67F8H   LINE      ECODE    ---       #74
      00FE67F8H   LINE      ECODE    ---       #76
      00FE6805H   LINE      ECODE    ---       #78
      00FE682BH   LINE      ECODE    ---       #79
      00FE6851H   LINE      ECODE    ---       #80
      00FE6877H   LINE      ECODE    ---       #81
      00FE68A1H   LINE      ECODE    ---       #82
      00FE68C7H   LINE      ECODE    ---       #83
      00FE68EDH   LINE      ECODE    ---       #84
      00FE6907H   LINE      ECODE    ---       #85
      ---         BLOCKEND  ---      ---       LVL=0

      00FE6908H   BLOCK     ECODE    ---       LVL=0
      R15         REGSYM    ---      BYTE      event
      00FE6908H   LINE      ECODE    ---       #93
      00FE690CH   LINE      ECODE    ---       #95
      00FE6916H   LINE      ECODE    ---       #96
      00FE691FH   LINE      ECODE    ---       #97
      00FE6927H   LINE      ECODE    ---       #99
      00FE694DH   LINE      ECODE    ---       #101
      00FE694DH   LINE      ECODE    ---       #102
      00FE6956H   LINE      ECODE    ---       #103
      00FE695BH   LINE      ECODE    ---       #104
      00FE695DH   LINE      ECODE    ---       #105
      00FE695DH   LINE      ECODE    ---       #106
      00FE6966H   LINE      ECODE    ---       #107
      00FE696BH   LINE      ECODE    ---       #108
      00FE696DH   LINE      ECODE    ---       #109
      00FE696DH   LINE      ECODE    ---       #110
      00FE6976H   LINE      ECODE    ---       #111
      00FE697BH   LINE      ECODE    ---       #112
      00FE697DH   LINE      ECODE    ---       #113
      00FE697DH   LINE      ECODE    ---       #114
      00FE6986H   LINE      ECODE    ---       #115
      00FE698BH   LINE      ECODE    ---       #116
      00FE698DH   LINE      ECODE    ---       #117
      00FE698DH   LINE      ECODE    ---       #118
      00FE6996H   LINE      ECODE    ---       #119
      00FE699CH   LINE      ECODE    ---       #120
      00FE699EH   LINE      ECODE    ---       #121
      00FE699EH   LINE      ECODE    ---       #122
      00FE69A7H   LINE      ECODE    ---       #123
L251 LINKER/LOCATER V4.66.93.0                                                        08/24/2022  19:19:43  PAGE 134


      00FE69ADH   LINE      ECODE    ---       #124
      00FE69AFH   LINE      ECODE    ---       #125
      00FE69AFH   LINE      ECODE    ---       #126
      00FE69B8H   LINE      ECODE    ---       #127
      00FE69BEH   LINE      ECODE    ---       #128
      00FE69BEH   LINE      ECODE    ---       #129
      00FE69BEH   LINE      ECODE    ---       #130
      00FE69BEH   LINE      ECODE    ---       #131
      00FE69C6H   LINE      ECODE    ---       #133
      00FE69ECH   LINE      ECODE    ---       #135
      00FE69ECH   LINE      ECODE    ---       #136
      00FE69F5H   LINE      ECODE    ---       #137
      00FE69FBH   LINE      ECODE    ---       #138
      00FE69FDH   LINE      ECODE    ---       #139
      00FE69FDH   LINE      ECODE    ---       #140
      00FE6A06H   LINE      ECODE    ---       #141
      00FE6A0CH   LINE      ECODE    ---       #142
      00FE6A0EH   LINE      ECODE    ---       #143
      00FE6A0EH   LINE      ECODE    ---       #144
      00FE6A17H   LINE      ECODE    ---       #145
      00FE6A1DH   LINE      ECODE    ---       #146
      00FE6A1FH   LINE      ECODE    ---       #147
      00FE6A1FH   LINE      ECODE    ---       #148
      00FE6A28H   LINE      ECODE    ---       #149
      00FE6A2DH   LINE      ECODE    ---       #150
      00FE6A2FH   LINE      ECODE    ---       #151
      00FE6A2FH   LINE      ECODE    ---       #152
      00FE6A37H   LINE      ECODE    ---       #153
      00FE6A3DH   LINE      ECODE    ---       #154
      00FE6A3FH   LINE      ECODE    ---       #155
      00FE6A3FH   LINE      ECODE    ---       #156
      00FE6A47H   LINE      ECODE    ---       #157
      00FE6A4DH   LINE      ECODE    ---       #158
      00FE6A4FH   LINE      ECODE    ---       #159
      00FE6A4FH   LINE      ECODE    ---       #160
      00FE6A57H   LINE      ECODE    ---       #161
      00FE6A5DH   LINE      ECODE    ---       #162
      00FE6A5DH   LINE      ECODE    ---       #163
      00FE6A5DH   LINE      ECODE    ---       #164
      00FE6A5DH   LINE      ECODE    ---       #165
      00FE6A62H   LINE      ECODE    ---       #167
      00FE6A6CH   LINE      ECODE    ---       #168
      ---         BLOCKEND  ---      ---       LVL=0

      00FE6A6FH   BLOCK     ECODE    ---       LVL=0
      R3          REGSYM    ---      BYTE      pageID
      00FE6A6FH   LINE      ECODE    ---       #170
      00FE6A6FH   LINE      ECODE    ---       #172
      ---         BLOCKEND  ---      ---       LVL=0

      ---         MODULE    ---      ---       page_setting
      00FE4D57H   PUBLIC    ECODE    ---       pageRegister_page_setting?
      00FF10E5H   PUBLIC    CODE     ---       item
      000000D0H   SFRSYM    DATA     BYTE      PSW
      00000088H   SFRSYM    DATA     BYTE      TCON
      00000098H   SFRSYM    DATA     BYTE      SCON
      000000B8H   SFRSYM    DATA     BYTE      IP
      000000A8H   SFRSYM    DATA     BYTE      IE
      000000F8H   SFRSYM    DATA     BYTE      P7
      000000E8H   SFRSYM    DATA     BYTE      P6
      000000C8H   SFRSYM    DATA     BYTE      P5
      000000C0H   SFRSYM    DATA     BYTE      P4
      000000B0H   SFRSYM    DATA     BYTE      P3
      000000A0H   SFRSYM    DATA     BYTE      P2
      00000090H   SFRSYM    DATA     BYTE      P1
L251 LINKER/LOCATER V4.66.93.0                                                        08/24/2022  19:19:43  PAGE 135


      00000080H   SFRSYM    DATA     BYTE      P0
      00FE4A97H   SYMBOL    ECODE    ---       Event?
      00FE4A30H   SYMBOL    ECODE    ---       delet?
      00FE4859H   SYMBOL    ECODE    ---       Setup?
      00FE4A8FH   SYMBOL    ECODE    ---       Loop?
      00FE4A40H   SYMBOL    ECODE    ---       Exit?
      00FF0FC3H   SYMBOL    CODE     ---       Icon
      00011669H   SYMBOL    XDATA    BYTE      nfocus
      0000082BH   SYMBOL    EDATA    ---       sw1
      0000082FH   SYMBOL    EDATA    ---       sw2
      00000833H   SYMBOL    EDATA    ---       sw3
      00000837H   SYMBOL    EDATA    ---       sw4
      0000083BH   SYMBOL    EDATA    ---       slider1
      0000083FH   SYMBOL    EDATA    ---       slider2
      00000843H   SYMBOL    EDATA    ---       text
      0000085FH   SYMBOL    EDATA    ---       group1

      00FE4859H   BLOCK     ECODE    ---       LVL=0
      R15         REGSYM    ---      BYTE      condition
      00FE485DH   BLOCK     ECODE    NEAR LAB  LVL=1
      R14         REGSYM    ---      BYTE      i
      ---         BLOCKEND  ---      ---       LVL=1
      00FE4859H   LINE      ECODE    ---       #48
      00FE485DH   LINE      ECODE    ---       #49
      00FE485DH   LINE      ECODE    ---       #51
      00FE4869H   LINE      ECODE    ---       #52
      00FE4873H   LINE      ECODE    ---       #53
      00FE4875H   LINE      ECODE    ---       #55
      00FE488EH   LINE      ECODE    ---       #56
      00FE48A9H   LINE      ECODE    ---       #57
      00FE48BFH   LINE      ECODE    ---       #58
      00FE48C6H   LINE      ECODE    ---       #59
      00FE48E8H   LINE      ECODE    ---       #60
      00FE490CH   LINE      ECODE    ---       #61
      00FE4924H   LINE      ECODE    ---       #62
      00FE494CH   LINE      ECODE    ---       #63
      00FE4974H   LINE      ECODE    ---       #64
      00FE498CH   LINE      ECODE    ---       #65
      00FE4999H   LINE      ECODE    ---       #66
      00FE49A6H   LINE      ECODE    ---       #67
      00FE49B3H   LINE      ECODE    ---       #68
      00FE49C0H   LINE      ECODE    ---       #69
      00FE49CDH   LINE      ECODE    ---       #70
      00FE49DAH   LINE      ECODE    ---       #71
      00FE49FAH   LINE      ECODE    ---       #72
      00FE4A28H   LINE      ECODE    ---       #73
      00FE4A2DH   LINE      ECODE    ---       #74
      ---         BLOCKEND  ---      ---       LVL=0

      00FE4A30H   BLOCK     ECODE    ---       LVL=0
      00FE4A30H   LINE      ECODE    ---       #75
      00FE4A30H   LINE      ECODE    ---       #77
      00FE4A38H   LINE      ECODE    ---       #78
      ---         BLOCKEND  ---      ---       LVL=0

      00FE4A40H   BLOCK     ECODE    ---       LVL=0
      R15         REGSYM    ---      BYTE      condition
      00FE4A40H   LINE      ECODE    ---       #85
      00FE4A44H   LINE      ECODE    ---       #87
      00FE4A50H   LINE      ECODE    ---       #88
      00FE4A58H   LINE      ECODE    ---       #89
      00FE4A8CH   LINE      ECODE    ---       #90
      ---         BLOCKEND  ---      ---       LVL=0

      00FE4A8FH   BLOCK     ECODE    ---       LVL=0
L251 LINKER/LOCATER V4.66.93.0                                                        08/24/2022  19:19:43  PAGE 136


      00FE4A8FH   LINE      ECODE    ---       #96
      00FE4A8FH   LINE      ECODE    ---       #98
      ---         BLOCKEND  ---      ---       LVL=0

      00FE4A97H   BLOCK     ECODE    ---       LVL=0
      R15         REGSYM    ---      BYTE      event
      00FE4AABH   BLOCK     ECODE    NEAR LAB  LVL=1
      REG=1       REGSYM    ---      ---       pWidget
      ---         BLOCKEND  ---      ---       LVL=1
      00FE4AF4H   BLOCK     ECODE    NEAR LAB  LVL=1
      R11         REGSYM    ---      BYTE      i
      00FE4B0EH   BLOCK     ECODE    NEAR LAB  LVL=2
      REG=1       REGSYM    ---      ---       pWidget
      ---         BLOCKEND  ---      ---       LVL=2
      00FE4B4EH   BLOCK     ECODE    NEAR LAB  LVL=2
      REG=1       REGSYM    ---      ---       pWidget
      ---         BLOCKEND  ---      ---       LVL=2
      ---         BLOCKEND  ---      ---       LVL=1
      00FE4A97H   LINE      ECODE    ---       #108
      00FE4A9BH   LINE      ECODE    ---       #110
      00FE4AA5H   LINE      ECODE    ---       #112
      00FE4AABH   LINE      ECODE    ---       #113
      00FE4AABH   LINE      ECODE    ---       #114
      00FE4AB3H   LINE      ECODE    ---       #115
      00FE4ABFH   LINE      ECODE    ---       #116
      00FE4AC6H   LINE      ECODE    ---       #117
      00FE4ACCH   LINE      ECODE    ---       #119
      00FE4ADCH   LINE      ECODE    ---       #120
      00FE4AE1H   LINE      ECODE    ---       #121
      00FE4AE3H   LINE      ECODE    ---       #123
      00FE4AECH   LINE      ECODE    ---       #124
      00FE4AECH   LINE      ECODE    ---       #125
      00FE4AF4H   LINE      ECODE    ---       #126
      00FE4AF4H   LINE      ECODE    ---       #127
      00FE4AFEH   LINE      ECODE    ---       #128
      00FE4B00H   LINE      ECODE    ---       #129
      00FE4B0BH   LINE      ECODE    ---       #130
      00FE4B0EH   LINE      ECODE    ---       #131
      00FE4B0EH   LINE      ECODE    ---       #132
      00FE4B16H   LINE      ECODE    ---       #133
      00FE4B1CH   LINE      ECODE    ---       #135
      00FE4B22H   LINE      ECODE    ---       #136
      00FE4B2EH   LINE      ECODE    ---       #137
      00FE4B32H   LINE      ECODE    ---       #138
      00FE4B34H   LINE      ECODE    ---       #141
      00FE4B39H   LINE      ECODE    ---       #142
      00FE4B45H   LINE      ECODE    ---       #143
      00FE4B49H   LINE      ECODE    ---       #144
      00FE4B49H   LINE      ECODE    ---       #145
      00FE4B4BH   LINE      ECODE    ---       #146
      00FE4B4EH   LINE      ECODE    ---       #147
      00FE4B4EH   LINE      ECODE    ---       #148
      00FE4B56H   LINE      ECODE    ---       #149
      00FE4B5CH   LINE      ECODE    ---       #151
      00FE4B62H   LINE      ECODE    ---       #152
      00FE4B6EH   LINE      ECODE    ---       #153
      00FE4B7BH   LINE      ECODE    ---       #154
      00FE4B7DH   LINE      ECODE    ---       #157
      00FE4B82H   LINE      ECODE    ---       #158
      00FE4B8EH   LINE      ECODE    ---       #159
      00FE4B9EH   LINE      ECODE    ---       #160
      00FE4B9EH   LINE      ECODE    ---       #161
      00FE4BA1H   LINE      ECODE    ---       #162
      00FE4BA4H   LINE      ECODE    ---       #164
      00FE4BAAH   LINE      ECODE    ---       #165
L251 LINKER/LOCATER V4.66.93.0                                                        08/24/2022  19:19:43  PAGE 137


      00FE4BADH   LINE      ECODE    ---       #167
      00FE4BB3H   LINE      ECODE    ---       #168
      00FE4BBFH   LINE      ECODE    ---       #169
      00FE4BC7H   LINE      ECODE    ---       #170
      00FE4BCAH   LINE      ECODE    ---       #171
      00FE4BCDH   LINE      ECODE    ---       #173
      00FE4BD8H   LINE      ECODE    ---       #175
      00FE4BE0H   LINE      ECODE    ---       #176
      00FE4BE4H   LINE      ECODE    ---       #177
      00FE4BE9H   LINE      ECODE    ---       #178
      00FE4BEBH   LINE      ECODE    ---       #181
      00FE4BF3H   LINE      ECODE    ---       #182
      00FE4BFFH   LINE      ECODE    ---       #183
      00FE4C05H   LINE      ECODE    ---       #184
      00FE4C05H   LINE      ECODE    ---       #185
      00FE4C07H   LINE      ECODE    ---       #186
      00FE4C0AH   LINE      ECODE    ---       #188
      00FE4C15H   LINE      ECODE    ---       #190
      00FE4C1DH   LINE      ECODE    ---       #191
      00FE4C21H   LINE      ECODE    ---       #192
      00FE4C26H   LINE      ECODE    ---       #193
      00FE4C28H   LINE      ECODE    ---       #196
      00FE4C30H   LINE      ECODE    ---       #197
      00FE4C3AH   LINE      ECODE    ---       #198
      00FE4C40H   LINE      ECODE    ---       #199
      00FE4C40H   LINE      ECODE    ---       #201
      00FE4C42H   LINE      ECODE    ---       #202
      00FE4C45H   LINE      ECODE    ---       #204
      00FE4C4BH   LINE      ECODE    ---       #206
      00FE4C50H   LINE      ECODE    ---       #207
      00FE4C52H   LINE      ECODE    ---       #210
      00FE4C58H   LINE      ECODE    ---       #211
      00FE4C5CH   LINE      ECODE    ---       #212
      00FE4C5CH   LINE      ECODE    ---       #213
      00FE4C68H   LINE      ECODE    ---       #214
      00FE4C68H   LINE      ECODE    ---       #222
      00FE4C6DH   LINE      ECODE    ---       #224
      00FE4C77H   LINE      ECODE    ---       #226
      00FE4C80H   LINE      ECODE    ---       #227
      00FE4C82H   LINE      ECODE    ---       #228
      00FE4C87H   LINE      ECODE    ---       #230
      00FE4C92H   LINE      ECODE    ---       #231
      00FE4C98H   LINE      ECODE    ---       #232
      00FE4CA6H   LINE      ECODE    ---       #233
      00FE4CA8H   LINE      ECODE    ---       #234
      00FE4CADH   LINE      ECODE    ---       #236
      00FE4CB6H   LINE      ECODE    ---       #237
      00FE4CBCH   LINE      ECODE    ---       #238
      00FE4CCAH   LINE      ECODE    ---       #239
      00FE4CDEH   LINE      ECODE    ---       #240
      00FE4CDEH   LINE      ECODE    ---       #242
      00FE4CE3H   LINE      ECODE    ---       #244
      00FE4CEDH   LINE      ECODE    ---       #246
      00FE4CF7H   LINE      ECODE    ---       #247
      00FE4CF9H   LINE      ECODE    ---       #248
      00FE4CFEH   LINE      ECODE    ---       #250
      00FE4D09H   LINE      ECODE    ---       #251
      00FE4D0FH   LINE      ECODE    ---       #252
      00FE4D1DH   LINE      ECODE    ---       #253
      00FE4D1FH   LINE      ECODE    ---       #254
      00FE4D24H   LINE      ECODE    ---       #256
      00FE4D2CH   LINE      ECODE    ---       #257
      00FE4D32H   LINE      ECODE    ---       #258
      00FE4D40H   LINE      ECODE    ---       #259
      00FE4D54H   LINE      ECODE    ---       #260
L251 LINKER/LOCATER V4.66.93.0                                                        08/24/2022  19:19:43  PAGE 138


      00FE4D54H   LINE      ECODE    ---       #262
      ---         BLOCKEND  ---      ---       LVL=0

      00FE4D57H   BLOCK     ECODE    ---       LVL=0
      R3          REGSYM    ---      BYTE      pageID
      00FE4D57H   LINE      ECODE    ---       #263
      00FE4D57H   LINE      ECODE    ---       #265
      ---         BLOCKEND  ---      ---       LVL=0

      ---         MODULE    ---      ---       page_snake
      00FE3D25H   PUBLIC    ECODE    ---       pageRegister_page_snake?
      000000D0H   SFRSYM    DATA     BYTE      PSW
      00000088H   SFRSYM    DATA     BYTE      TCON
      00000098H   SFRSYM    DATA     BYTE      SCON
      000000B8H   SFRSYM    DATA     BYTE      IP
      000000A8H   SFRSYM    DATA     BYTE      IE
      000000F8H   SFRSYM    DATA     BYTE      P7
      000000E8H   SFRSYM    DATA     BYTE      P6
      000000C8H   SFRSYM    DATA     BYTE      P5
      000000C0H   SFRSYM    DATA     BYTE      P4
      000000B0H   SFRSYM    DATA     BYTE      P3
      000000A0H   SFRSYM    DATA     BYTE      P2
      00000090H   SFRSYM    DATA     BYTE      P1
      00000080H   SFRSYM    DATA     BYTE      P0
      00FE3CFBH   SYMBOL    ECODE    ---       Event?
      00FE37E3H   SYMBOL    ECODE    ---       delet?
      00FE3643H   SYMBOL    ECODE    ---       Setup?
      00FE382FH   SYMBOL    ECODE    ---       Loop?
      00FE37F3H   SYMBOL    ECODE    ---       Exit?
      000009AFH   SYMBOL    EDATA    ---       label_game
      000009B3H   SYMBOL    EDATA    ---       label_score
      000009B7H   SYMBOL    EDATA    ---       label_best
      000009BBH   SYMBOL    EDATA    BYTE      delicious_x
      000009BCH   SYMBOL    EDATA    BYTE      delicious_y
      000009BDH   SYMBOL    EDATA    ---       canvas1
      000009C1H   SYMBOL    EDATA    BYTE      snake_len
      000009C2H   SYMBOL    EDATA    ---       group1
      000009C6H   SYMBOL    EDATA    BYTE      snake_head_y
      000009C7H   SYMBOL    EDATA    ---       text1
      000009CBH   SYMBOL    EDATA    ---       text2
      00011265H   SYMBOL    XDATA    BYTE      snake_speed
      00011266H   SYMBOL    XDATA    ---       past_x
      00011366H   SYMBOL    XDATA    ---       past_y
      00011466H   SYMBOL    XDATA    BYTE      best_score
      00011467H   SYMBOL    XDATA    BYTE      snake_direction
      00011468H   SYMBOL    XDATA    BYTE      snake_head_x
      00011469H   SYMBOL    XDATA    BYTE      i
      0001146AH   SYMBOL    XDATA    BYTE      test_now
      00FF15ADH   SYMBOL    CODE     ---       Icon
      00000020H.0 SYMBOL    BIT      BIT       game_pause
      00000020H.1 SYMBOL    BIT      BIT       game_loop
      00000020H.2 SYMBOL    BIT      BIT       game_over

      00FE3643H   BLOCK     ECODE    ---       LVL=0
      R7          REGSYM    ---      BYTE      i
      00FE3643H   LINE      ECODE    ---       #50
      00FE3643H   LINE      ECODE    ---       #51
      00FE3643H   LINE      ECODE    ---       #53
      00FE3652H   LINE      ECODE    ---       #54
      00FE3660H   LINE      ECODE    ---       #55
      00FE3671H   LINE      ECODE    ---       #56
      00FE3682H   LINE      ECODE    ---       #57
      00FE3690H   LINE      ECODE    ---       #58
      00FE36A1H   LINE      ECODE    ---       #59
      00FE36B3H   LINE      ECODE    ---       #60
L251 LINKER/LOCATER V4.66.93.0                                                        08/24/2022  19:19:43  PAGE 139


      00FE36C1H   LINE      ECODE    ---       #61
      00FE36CBH   LINE      ECODE    ---       #62
      00FE36D4H   LINE      ECODE    ---       #63
      00FE36E5H   LINE      ECODE    ---       #64
      00FE36F4H   LINE      ECODE    ---       #65
      00FE36FEH   LINE      ECODE    ---       #66
      00FE3709H   LINE      ECODE    ---       #67
      00FE3716H   LINE      ECODE    ---       #68
      00FE3723H   LINE      ECODE    ---       #69
      00FE3730H   LINE      ECODE    ---       #70
      00FE373DH   LINE      ECODE    ---       #71
      00FE374AH   LINE      ECODE    ---       #72
      00FE3758H   LINE      ECODE    ---       #73
      00FE3772H   LINE      ECODE    ---       #74
      00FE377BH   LINE      ECODE    ---       #75
      00FE3784H   LINE      ECODE    ---       #76
      00FE3798H   LINE      ECODE    ---       #77
      00FE379DH   LINE      ECODE    ---       #78
      00FE37A3H   LINE      ECODE    ---       #79
      00FE37A9H   LINE      ECODE    ---       #80
      00FE37AFH   LINE      ECODE    ---       #81
      00FE37B1H   LINE      ECODE    ---       #82
      00FE37B3H   LINE      ECODE    ---       #83
      00FE37BAH   LINE      ECODE    ---       #85
      00FE37C9H   LINE      ECODE    ---       #86
      00FE37D8H   LINE      ECODE    ---       #87
      00FE37E2H   LINE      ECODE    ---       #88
      ---         BLOCKEND  ---      ---       LVL=0

      00FE37E3H   BLOCK     ECODE    ---       LVL=0
      00FE37E3H   LINE      ECODE    ---       #89
      00FE37E3H   LINE      ECODE    ---       #91
      00FE37EBH   LINE      ECODE    ---       #92
      ---         BLOCKEND  ---      ---       LVL=0

      00FE37F3H   BLOCK     ECODE    ---       LVL=0
      00FE37F3H   LINE      ECODE    ---       #99
      00FE37F3H   LINE      ECODE    ---       #101
      00FE37F9H   LINE      ECODE    ---       #102
      00FE37FCH   LINE      ECODE    ---       #104
      00FE3805H   LINE      ECODE    ---       #105
      00FE380DH   LINE      ECODE    ---       #106
      ---         BLOCKEND  ---      ---       LVL=0

      00FE382FH   BLOCK     ECODE    ---       LVL=0
      00FE384CH   BLOCK     ECODE    NEAR LAB  LVL=1
      000009CFH   SYMBOL    EDATA    BYTE      t_cnt
      ---         BLOCKEND  ---      ---       LVL=1
      00FE382FH   LINE      ECODE    ---       #113
      00FE3831H   LINE      ECODE    ---       #115
      00FE383BH   LINE      ECODE    ---       #117
      00FE383FH   LINE      ECODE    ---       #123
      00FE383FH   LINE      ECODE    ---       #124
      00FE384CH   LINE      ECODE    ---       #125
      00FE384CH   LINE      ECODE    ---       #127
      00FE3867H   LINE      ECODE    ---       #129
      00FE386CH   LINE      ECODE    ---       #130
      00FE386EH   LINE      ECODE    ---       #131
      00FE386EH   LINE      ECODE    ---       #132
      00FE3874H   LINE      ECODE    ---       #134
      00FE3876H   LINE      ECODE    ---       #135
      00FE3882H   LINE      ECODE    ---       #137
      00FE388AH   LINE      ECODE    ---       #138
      00FE389BH   LINE      ECODE    ---       #139
      00FE38C1H   LINE      ECODE    ---       #140
L251 LINKER/LOCATER V4.66.93.0                                                        08/24/2022  19:19:43  PAGE 140


      00FE38CBH   LINE      ECODE    ---       #141
      00FE38D3H   LINE      ECODE    ---       #142
      00FE38F9H   LINE      ECODE    ---       #144
      00FE3903H   LINE      ECODE    ---       #146
      00FE391BH   LINE      ECODE    ---       #147
      00FE391DH   LINE      ECODE    ---       #148
      00FE392EH   LINE      ECODE    ---       #149
      00FE392EH   LINE      ECODE    ---       #150
      00FE3930H   LINE      ECODE    ---       #151
      00FE3935H   LINE      ECODE    ---       #153
      00FE394DH   LINE      ECODE    ---       #154
      00FE394FH   LINE      ECODE    ---       #155
      00FE395DH   LINE      ECODE    ---       #156
      00FE395DH   LINE      ECODE    ---       #157
      00FE395FH   LINE      ECODE    ---       #158
      00FE3964H   LINE      ECODE    ---       #160
      00FE397CH   LINE      ECODE    ---       #161
      00FE3980H   LINE      ECODE    ---       #162
      00FE398EH   LINE      ECODE    ---       #163
      00FE3990H   LINE      ECODE    ---       #164
      00FE3992H   LINE      ECODE    ---       #165
      00FE3997H   LINE      ECODE    ---       #167
      00FE39AFH   LINE      ECODE    ---       #168
      00FE39B2H   LINE      ECODE    ---       #169
      00FE39C0H   LINE      ECODE    ---       #170
      00FE39C6H   LINE      ECODE    ---       #171
      00FE39C6H   LINE      ECODE    ---       #174
      00FE39D7H   LINE      ECODE    ---       #176
      00FE39D7H   LINE      ECODE    ---       #177
      00FE39DDH   LINE      ECODE    ---       #178
      00FE39DFH   LINE      ECODE    ---       #179
      00FE39DFH   LINE      ECODE    ---       #180
      00FE39E4H   LINE      ECODE    ---       #181
      00FE39E6H   LINE      ECODE    ---       #182
      00FE39E6H   LINE      ECODE    ---       #183
      00FE39ECH   LINE      ECODE    ---       #184
      00FE39EEH   LINE      ECODE    ---       #185
      00FE39EEH   LINE      ECODE    ---       #186
      00FE39F7H   LINE      ECODE    ---       #187
      00FE39F7H   LINE      ECODE    ---       #188
      00FE39F7H   LINE      ECODE    ---       #189
      00FE3A02H   LINE      ECODE    ---       #190
      00FE3A06H   LINE      ECODE    ---       #191
      00FE3A0BH   LINE      ECODE    ---       #192
      00FE3A11H   LINE      ECODE    ---       #193
      00FE3A1AH   LINE      ECODE    ---       #194
      00FE3A1EH   LINE      ECODE    ---       #195
      00FE3A23H   LINE      ECODE    ---       #196
      00FE3A29H   LINE      ECODE    ---       #198
      00FE3A30H   LINE      ECODE    ---       #200
      00FE3A5EH   LINE      ECODE    ---       #202
      00FE3A68H   LINE      ECODE    ---       #203
      00FE3A87H   LINE      ECODE    ---       #204
      00FE3A89H   LINE      ECODE    ---       #205
      00FE3A8BH   LINE      ECODE    ---       #206
      00FE3A8DH   LINE      ECODE    ---       #207
      00FE3A9DH   LINE      ECODE    ---       #211
      00FE3AA3H   LINE      ECODE    ---       #212
      00FE3AB9H   LINE      ECODE    ---       #213
      00FE3AD4H   LINE      ECODE    ---       #214
      00FE3AE3H   LINE      ECODE    ---       #215
      00FE3AEAH   LINE      ECODE    ---       #217
      00FE3B12H   LINE      ECODE    ---       #218
      00FE3B22H   LINE      ECODE    ---       #221
      00FE3B62H   LINE      ECODE    ---       #223
L251 LINKER/LOCATER V4.66.93.0                                                        08/24/2022  19:19:43  PAGE 141


      00FE3B6BH   LINE      ECODE    ---       #224
      00FE3B8BH   LINE      ECODE    ---       #225
      00FE3BA3H   LINE      ECODE    ---       #226
      00FE3BA9H   LINE      ECODE    ---       #227
      00FE3BADH   LINE      ECODE    ---       #228
      00FE3BBFH   LINE      ECODE    ---       #229
      00FE3BC4H   LINE      ECODE    ---       #230
      00FE3BC8H   LINE      ECODE    ---       #231
      00FE3BD1H   LINE      ECODE    ---       #232
      00FE3BD7H   LINE      ECODE    ---       #233
      00FE3BE9H   LINE      ECODE    ---       #234
      00FE3BEEH   LINE      ECODE    ---       #235
      00FE3BF2H   LINE      ECODE    ---       #236
      00FE3BFBH   LINE      ECODE    ---       #237
      00FE3C01H   LINE      ECODE    ---       #238
      00FE3C01H   LINE      ECODE    ---       #239
      00FE3C11H   LINE      ECODE    ---       #240
      00FE3C25H   LINE      ECODE    ---       #241
      00FE3C39H   LINE      ECODE    ---       #242
      00FE3C4DH   LINE      ECODE    ---       #243
      00FE3C65H   LINE      ECODE    ---       #244
      00FE3C7DH   LINE      ECODE    ---       #245
      00FE3C91H   LINE      ECODE    ---       #246
      00FE3CA9H   LINE      ECODE    ---       #247
      00FE3CC1H   LINE      ECODE    ---       #248
      00FE3CCAH   LINE      ECODE    ---       #249
      00FE3CCEH   LINE      ECODE    ---       #250
      00FE3CD3H   LINE      ECODE    ---       #251
      00FE3CD7H   LINE      ECODE    ---       #252
      00FE3CDCH   LINE      ECODE    ---       #253
      00FE3CE0H   LINE      ECODE    ---       #254
      00FE3CE5H   LINE      ECODE    ---       #255
      00FE3CE9H   LINE      ECODE    ---       #256
      00FE3CEEH   LINE      ECODE    ---       #257
      00FE3CF2H   LINE      ECODE    ---       #259
      00FE3CF8H   LINE      ECODE    ---       #260
      00FE3CF8H   LINE      ECODE    ---       #261
      00FE3CF8H   LINE      ECODE    ---       #264
      00FE3CF8H   LINE      ECODE    ---       #266
      00FE3CF8H   LINE      ECODE    ---       #267
      ---         BLOCKEND  ---      ---       LVL=0

      00FE3CFBH   BLOCK     ECODE    ---       LVL=0
      R7          REGSYM    ---      BYTE      event
      00FE3CFBH   LINE      ECODE    ---       #274
      00FE3CFDH   LINE      ECODE    ---       #276
      00FE3D01H   LINE      ECODE    ---       #277
      00FE3D0AH   LINE      ECODE    ---       #278
      00FE3D0FH   LINE      ECODE    ---       #281
      00FE3D0FH   LINE      ECODE    ---       #282
      00FE3D13H   LINE      ECODE    ---       #284
      00FE3D1CH   LINE      ECODE    ---       #286
      00FE3D1FH   LINE      ECODE    ---       #287
      00FE3D22H   LINE      ECODE    ---       #289
      00FE3D24H   LINE      ECODE    ---       #290
      00FE3D24H   LINE      ECODE    ---       #292
      00FE3D24H   LINE      ECODE    ---       #295
      ---         BLOCKEND  ---      ---       LVL=0

      00FE3D25H   BLOCK     ECODE    ---       LVL=0
      R3          REGSYM    ---      BYTE      pageID
      00FE3D25H   LINE      ECODE    ---       #297
      00FE3D25H   LINE      ECODE    ---       #299
      ---         BLOCKEND  ---      ---       LVL=0

L251 LINKER/LOCATER V4.66.93.0                                                        08/24/2022  19:19:43  PAGE 142


      ---         MODULE    ---      ---       page_trexrunner
      00FE47BBH   PUBLIC    ECODE    ---       anim_fall?
      00FE4815H   PUBLIC    ECODE    ---       pageRegister_page_trexrunner?
      00FE47D9H   PUBLIC    ECODE    ---       anim_jump?
      000000D0H   SFRSYM    DATA     BYTE      PSW
      00000088H   SFRSYM    DATA     BYTE      TCON
      00000098H   SFRSYM    DATA     BYTE      SCON
      000000B8H   SFRSYM    DATA     BYTE      IP
      000000A8H   SFRSYM    DATA     BYTE      IE
      000000F8H   SFRSYM    DATA     BYTE      P7
      000000E8H   SFRSYM    DATA     BYTE      P6
      000000C8H   SFRSYM    DATA     BYTE      P5
      000000C0H   SFRSYM    DATA     BYTE      P4
      000000B0H   SFRSYM    DATA     BYTE      P3
      000000A0H   SFRSYM    DATA     BYTE      P2
      00000090H   SFRSYM    DATA     BYTE      P1
      00000080H   SFRSYM    DATA     BYTE      P0
      00FE47FDH   SYMBOL    ECODE    ---       Event?
      00FE447BH   SYMBOL    ECODE    ---       delet?
      00FE42E9H   SYMBOL    ECODE    ---       Setup?
      00FE44ADH   SYMBOL    ECODE    ---       Loop?
      00FE448BH   SYMBOL    ECODE    ---       Exit?
      00000989H   SYMBOL    EDATA    ---       label_game
      0000098DH   SYMBOL    EDATA    ---       label_score
      00000991H   SYMBOL    EDATA    ---       trex
      00000995H   SYMBOL    EDATA    ---       group1
      00000999H   SYMBOL    EDATA    ---       tree1
      0000099DH   SYMBOL    EDATA    ---       tree2
      000009A1H   SYMBOL    EDATA    ---       tree3
      000009A5H   SYMBOL    EDATA    ---       bg1
      000009A9H   SYMBOL    EDATA    ---       bg2
      00FF04FFH   SYMBOL    CODE     ---       GROUND1
      00FF0601H   SYMBOL    CODE     ---       GROUND2
      00FF0703H   SYMBOL    CODE     ---       Icon
      00FF0825H   SYMBOL    CODE     ---       T_REX
      00FF0866H   SYMBOL    CODE     ---       TREE1
      00FF0892H   SYMBOL    CODE     ---       TREE2
      00011664H   SYMBOL    XDATA    BYTE      collison_cnt
      00011665H   SYMBOL    XDATA    WORD      score
      00011667H   SYMBOL    XDATA    BYTE      game_start
      00011668H   SYMBOL    XDATA    BYTE      collided

      00FE42E9H   BLOCK     ECODE    ---       LVL=0
      00FE42E9H   LINE      ECODE    ---       #104
      00FE42E9H   LINE      ECODE    ---       #106
      00FE42F6H   LINE      ECODE    ---       #107
      00FE4308H   LINE      ECODE    ---       #108
      00FE4316H   LINE      ECODE    ---       #109
      00FE4320H   LINE      ECODE    ---       #110
      00FE4329H   LINE      ECODE    ---       #111
      00FE4341H   LINE      ECODE    ---       #112
      00FE4359H   LINE      ECODE    ---       #113
      00FE4371H   LINE      ECODE    ---       #114
      00FE4389H   LINE      ECODE    ---       #115
      00FE439FH   LINE      ECODE    ---       #116
      00FE43B7H   LINE      ECODE    ---       #117
      00FE43C1H   LINE      ECODE    ---       #118
      00FE43CCH   LINE      ECODE    ---       #119
      00FE43D9H   LINE      ECODE    ---       #120
      00FE43E6H   LINE      ECODE    ---       #121
      00FE43F3H   LINE      ECODE    ---       #122
      00FE4400H   LINE      ECODE    ---       #123
      00FE440DH   LINE      ECODE    ---       #124
      00FE441AH   LINE      ECODE    ---       #125
      00FE4427H   LINE      ECODE    ---       #126
L251 LINKER/LOCATER V4.66.93.0                                                        08/24/2022  19:19:43  PAGE 143


      00FE4435H   LINE      ECODE    ---       #127
      00FE444FH   LINE      ECODE    ---       #128
      00FE4463H   LINE      ECODE    ---       #129
      00FE4469H   LINE      ECODE    ---       #130
      00FE446EH   LINE      ECODE    ---       #131
      00FE4476H   LINE      ECODE    ---       #132
      00FE447AH   LINE      ECODE    ---       #133
      ---         BLOCKEND  ---      ---       LVL=0

      00FE447BH   BLOCK     ECODE    ---       LVL=0
      00FE447BH   LINE      ECODE    ---       #134
      00FE447BH   LINE      ECODE    ---       #136
      00FE4483H   LINE      ECODE    ---       #137
      ---         BLOCKEND  ---      ---       LVL=0

      00FE448BH   BLOCK     ECODE    ---       LVL=0
      00FE448BH   LINE      ECODE    ---       #144
      00FE448BH   LINE      ECODE    ---       #146
      ---         BLOCKEND  ---      ---       LVL=0

      00FE44ADH   BLOCK     ECODE    ---       LVL=0
      00FE44CEH   BLOCK     ECODE    NEAR LAB  LVL=1
      000009ADH   SYMBOL    EDATA    WORD      t_cnt
      ---         BLOCKEND  ---      ---       LVL=1
      00FE44ADH   LINE      ECODE    ---       #154
      00FE44ADH   LINE      ECODE    ---       #156
      00FE44BAH   LINE      ECODE    ---       #158
      00FE44BEH   LINE      ECODE    ---       #159
      00FE44C7H   LINE      ECODE    ---       #161
      00FE44CEH   LINE      ECODE    ---       #162
      00FE44CEH   LINE      ECODE    ---       #164
      00FE44DCH   LINE      ECODE    ---       #166
      00FE44E9H   LINE      ECODE    ---       #167
      00FE44F8H   LINE      ECODE    ---       #169
      00FE4503H   LINE      ECODE    ---       #170
      00FE4503H   LINE      ECODE    ---       #171
      00FE4518H   LINE      ECODE    ---       #173
      00FE451EH   LINE      ECODE    ---       #174
      00FE452EH   LINE      ECODE    ---       #175
      00FE4533H   LINE      ECODE    ---       #176
      00FE4536H   LINE      ECODE    ---       #181
      00FE4560H   LINE      ECODE    ---       #183
      00FE4578H   LINE      ECODE    ---       #184
      00FE457EH   LINE      ECODE    ---       #185
      00FE457EH   LINE      ECODE    ---       #186
      00FE459AH   LINE      ECODE    ---       #188
      00FE45A0H   LINE      ECODE    ---       #189
      00FE45ABH   LINE      ECODE    ---       #190
      00FE45ABH   LINE      ECODE    ---       #191
      00FE45D1H   LINE      ECODE    ---       #193
      00FE45E9H   LINE      ECODE    ---       #194
      00FE45EFH   LINE      ECODE    ---       #195
      00FE45EFH   LINE      ECODE    ---       #196
      00FE460BH   LINE      ECODE    ---       #198
      00FE4611H   LINE      ECODE    ---       #199
      00FE461CH   LINE      ECODE    ---       #200
      00FE461CH   LINE      ECODE    ---       #201
      00FE4642H   LINE      ECODE    ---       #203
      00FE465AH   LINE      ECODE    ---       #204
      00FE4660H   LINE      ECODE    ---       #205
      00FE4660H   LINE      ECODE    ---       #206
      00FE467CH   LINE      ECODE    ---       #208
      00FE4682H   LINE      ECODE    ---       #209
      00FE468DH   LINE      ECODE    ---       #210
      00FE468DH   LINE      ECODE    ---       #211
L251 LINKER/LOCATER V4.66.93.0                                                        08/24/2022  19:19:43  PAGE 144


      00FE4694H   LINE      ECODE    ---       #213
      00FE4698H   LINE      ECODE    ---       #214
      00FE46A1H   LINE      ECODE    ---       #216
      00FE46A6H   LINE      ECODE    ---       #217
      00FE46B0H   LINE      ECODE    ---       #218
      00FE46CFH   LINE      ECODE    ---       #219
      00FE46CFH   LINE      ECODE    ---       #221
      00FE46CFH   LINE      ECODE    ---       #222
      00FE46E3H   LINE      ECODE    ---       #224
      00FE46FCH   LINE      ECODE    ---       #225
      00FE46FCH   LINE      ECODE    ---       #226
      00FE4710H   LINE      ECODE    ---       #228
      00FE4729H   LINE      ECODE    ---       #229
      00FE4729H   LINE      ECODE    ---       #230
      00FE473DH   LINE      ECODE    ---       #232
      00FE4756H   LINE      ECODE    ---       #233
      00FE4756H   LINE      ECODE    ---       #234
      00FE476AH   LINE      ECODE    ---       #235
      00FE4775H   LINE      ECODE    ---       #236
      00FE4789H   LINE      ECODE    ---       #237
      00FE4794H   LINE      ECODE    ---       #238
      00FE47BAH   LINE      ECODE    ---       #239
      00FE47BAH   LINE      ECODE    ---       #241
      ---         BLOCKEND  ---      ---       LVL=0

      00FE47BBH   BLOCK     ECODE    ---       LVL=0
      00FE47BBH   LINE      ECODE    ---       #242
      00FE47BBH   LINE      ECODE    ---       #244
      ---         BLOCKEND  ---      ---       LVL=0

      00FE47D9H   BLOCK     ECODE    ---       LVL=0
      00FE47D9H   LINE      ECODE    ---       #246
      00FE47D9H   LINE      ECODE    ---       #248
      ---         BLOCKEND  ---      ---       LVL=0

      00FE47FDH   BLOCK     ECODE    ---       LVL=0
      R7          REGSYM    ---      BYTE      event
      00FE47FDH   LINE      ECODE    ---       #256
      00FE47FFH   LINE      ECODE    ---       #258
      00FE4803H   LINE      ECODE    ---       #259
      00FE480CH   LINE      ECODE    ---       #260
      00FE4810H   LINE      ECODE    ---       #262
      00FE4814H   LINE      ECODE    ---       #263
      00FE4814H   LINE      ECODE    ---       #264
      00FE4814H   LINE      ECODE    ---       #267
      ---         BLOCKEND  ---      ---       LVL=0

      00FE4815H   BLOCK     ECODE    ---       LVL=0
      R3          REGSYM    ---      BYTE      pageID
      00FE4815H   LINE      ECODE    ---       #269
      00FE4815H   LINE      ECODE    ---       #271
      ---         BLOCKEND  ---      ---       LVL=0

      ---         MODULE    ---      ---       page_watch
      00FE655BH   PUBLIC    ECODE    ---       DisplayTimeInAnim?
      00FE6523H   PUBLIC    ECODE    ---       pageRegister_page_watch?
      00FF009FH   PUBLIC    CODE     ---       TIMER_ICON
      00FF00A9H   PUBLIC    CODE     ---       WEEKDAY_IN_STR
      00FF00D3H   PUBLIC    CODE     ---       DIGIT
      00FF0493H   PUBLIC    CODE     ---       CLOCK_BELL_ICON
      00FF049DH   PUBLIC    CODE     ---       COLON
      000000D0H   SFRSYM    DATA     BYTE      PSW
      00000088H   SFRSYM    DATA     BYTE      TCON
      00000098H   SFRSYM    DATA     BYTE      SCON
      000000B8H   SFRSYM    DATA     BYTE      IP
L251 LINKER/LOCATER V4.66.93.0                                                        08/24/2022  19:19:43  PAGE 145


      000000A8H   SFRSYM    DATA     BYTE      IE
      000000F8H   SFRSYM    DATA     BYTE      P7
      000000E8H   SFRSYM    DATA     BYTE      P6
      000000C8H   SFRSYM    DATA     BYTE      P5
      000000C0H   SFRSYM    DATA     BYTE      P4
      000000B0H   SFRSYM    DATA     BYTE      P3
      000000A0H   SFRSYM    DATA     BYTE      P2
      00000090H   SFRSYM    DATA     BYTE      P1
      00000080H   SFRSYM    DATA     BYTE      P0
      00FE6502H   SYMBOL    ECODE    ---       Event?
      00FE638AH   SYMBOL    ECODE    ---       delet?
      00FE6188H   SYMBOL    ECODE    ---       Setup?
      00FE63BBH   SYMBOL    ECODE    ---       Loop?
      00FE6399H   SYMBOL    ECODE    ---       Exit?
      00011000H   SYMBOL    XDATA    BYTE      change_step
      00011001H   SYMBOL    XDATA    ---       digit_temp
      0001124DH   SYMBOL    XDATA    ---       str
      0001125FH   SYMBOL    XDATA    ---       str_last
      00000863H   SYMBOL    EDATA    ---       digit
      00000883H   SYMBOL    EDATA    BYTE      change_num
      00000884H   SYMBOL    EDATA    ---       group1
      00000888H   SYMBOL    EDATA    BYTE      change_index
      00000889H   SYMBOL    EDATA    ---       bmp1
      0000088DH   SYMBOL    EDATA    ---       bmp2
      00000891H   SYMBOL    EDATA    ---       bmp3
      00000895H   SYMBOL    EDATA    ---       text1

      00FE6188H   BLOCK     ECODE    ---       LVL=0
      00FE618AH   BLOCK     ECODE    NEAR LAB  LVL=1
      R15         REGSYM    ---      BYTE      i
      R7          REGSYM    ---      BYTE      j
      ---         BLOCKEND  ---      ---       LVL=1
      00FE6188H   LINE      ECODE    ---       #32
      00FE618AH   LINE      ECODE    ---       #33
      00FE618AH   LINE      ECODE    ---       #35
      00FE6196H   LINE      ECODE    ---       #36
      00FE61C8H   LINE      ECODE    ---       #37
      00FE61CAH   LINE      ECODE    ---       #39
      00FE61CCH   LINE      ECODE    ---       #40
      00FE620AH   LINE      ECODE    ---       #41
      00FE6211H   LINE      ECODE    ---       #42
      00FE6213H   LINE      ECODE    ---       #43
      00FE6234H   LINE      ECODE    ---       #45
      00FE6236H   LINE      ECODE    ---       #46
      00FE626EH   LINE      ECODE    ---       #47
      00FE6286H   LINE      ECODE    ---       #48
      00FE629EH   LINE      ECODE    ---       #50
      00FE62ADH   LINE      ECODE    ---       #52
      00FE62C3H   LINE      ECODE    ---       #53
      00FE62D7H   LINE      ECODE    ---       #54
      00FE62E1H   LINE      ECODE    ---       #55
      00FE62F5H   LINE      ECODE    ---       #56
      00FE6303H   LINE      ECODE    ---       #57
      00FE630DH   LINE      ECODE    ---       #58
      00FE630FH   LINE      ECODE    ---       #59
      00FE632BH   LINE      ECODE    ---       #60
      00FE6338H   LINE      ECODE    ---       #61
      00FE6345H   LINE      ECODE    ---       #62
      00FE6352H   LINE      ECODE    ---       #63
      00FE635FH   LINE      ECODE    ---       #64
      00FE636DH   LINE      ECODE    ---       #65
      00FE6387H   LINE      ECODE    ---       #66
      ---         BLOCKEND  ---      ---       LVL=0

      00FE638AH   BLOCK     ECODE    ---       LVL=0
L251 LINKER/LOCATER V4.66.93.0                                                        08/24/2022  19:19:43  PAGE 146


      00FE638AH   LINE      ECODE    ---       #67
      00FE638AH   LINE      ECODE    ---       #69
      00FE6392H   LINE      ECODE    ---       #70
      ---         BLOCKEND  ---      ---       LVL=0

      00FE6399H   BLOCK     ECODE    ---       LVL=0
      00FE6399H   LINE      ECODE    ---       #77
      00FE6399H   LINE      ECODE    ---       #79
      ---         BLOCKEND  ---      ---       LVL=0

      00FE63BBH   BLOCK     ECODE    ---       LVL=0
      00FE63C8H   BLOCK     ECODE    NEAR LAB  LVL=1
      R10         REGSYM    ---      CHAR      i
      ---         BLOCKEND  ---      ---       LVL=1
      00FE63BBH   LINE      ECODE    ---       #86
      00FE63BBH   LINE      ECODE    ---       #88
      00FE63C8H   LINE      ECODE    ---       #89
      00FE63C8H   LINE      ECODE    ---       #92
      00FE63D4H   LINE      ECODE    ---       #93
      00FE63ECH   LINE      ECODE    ---       #94
      00FE63FCH   LINE      ECODE    ---       #95
      00FE6408H   LINE      ECODE    ---       #96
      00FE643AH   LINE      ECODE    ---       #97
      00FE6441H   LINE      ECODE    ---       #99
      00FE6444H   LINE      ECODE    ---       #101
      00FE6464H   LINE      ECODE    ---       #103
      00FE6468H   LINE      ECODE    ---       #104
      00FE646DH   LINE      ECODE    ---       #105
      00FE6477H   LINE      ECODE    ---       #106
      00FE6480H   LINE      ECODE    ---       #107
      00FE6482H   LINE      ECODE    ---       #108
      00FE6489H   LINE      ECODE    ---       #110
      00FE6489H   LINE      ECODE    ---       #111
      00FE64D9H   LINE      ECODE    ---       #112
      00FE64E7H   LINE      ECODE    ---       #113
      00FE64F3H   LINE      ECODE    ---       #114
      00FE64F3H   LINE      ECODE    ---       #115
      00FE64FDH   LINE      ECODE    ---       #117
      00FE6501H   LINE      ECODE    ---       #118
      ---         BLOCKEND  ---      ---       LVL=0

      00FE6502H   BLOCK     ECODE    ---       LVL=0
      R7          REGSYM    ---      BYTE      event
      00FE6502H   LINE      ECODE    ---       #126
      00FE6504H   LINE      ECODE    ---       #128
      00FE6508H   LINE      ECODE    ---       #129
      00FE650CH   LINE      ECODE    ---       #130
      00FE651AH   LINE      ECODE    ---       #132
      00FE6522H   LINE      ECODE    ---       #133
      ---         BLOCKEND  ---      ---       LVL=0

      00FE6523H   BLOCK     ECODE    ---       LVL=0
      R3          REGSYM    ---      BYTE      pageID
      00FE6523H   LINE      ECODE    ---       #135
      00FE6523H   LINE      ECODE    ---       #137
      ---         BLOCKEND  ---      ---       LVL=0

      00FE655BH   BLOCK     ECODE    ---       LVL=0
      WR8         REGSYM    ---      WORD      k
      WR26        REGSYM    ---      WORD      num1
      WR24        REGSYM    ---      WORD      num2
      WR10        REGSYM    ---      WORD      temp
      R7          REGSYM    ---      BYTE      j
      R7          REGSYM    ---      BYTE      num3
      00FE6567H   BLOCK     ECODE    NEAR LAB  LVL=1
L251 LINKER/LOCATER V4.66.93.0                                                        08/24/2022  19:19:43  PAGE 147


      REG=7       REGSYM    ---      ---       ptr
      ---         BLOCKEND  ---      ---       LVL=1
      00FE655BH   LINE      ECODE    ---       #245
      00FE655BH   LINE      ECODE    ---       #246
      00FE655BH   LINE      ECODE    ---       #249
      00FE6567H   LINE      ECODE    ---       #250
      00FE6567H   LINE      ECODE    ---       #251
      00FE657AH   LINE      ECODE    ---       #252
      00FE657CH   LINE      ECODE    ---       #254
      00FE6586H   LINE      ECODE    ---       #255
      00FE658CH   LINE      ECODE    ---       #256
      00FE6590H   LINE      ECODE    ---       #258
      00FE65A3H   LINE      ECODE    ---       #259
      00FE65ACH   LINE      ECODE    ---       #260
      00FE65B2H   LINE      ECODE    ---       #261
      00FE65B8H   LINE      ECODE    ---       #262
      00FE65C2H   LINE      ECODE    ---       #263
      00FE65D6H   LINE      ECODE    ---       #264
      00FE65E2H   LINE      ECODE    ---       #265
      00FE65E4H   LINE      ECODE    ---       #267
      00FE661FH   LINE      ECODE    ---       #268
      00FE6627H   LINE      ECODE    ---       #269
      00FE662DH   LINE      ECODE    ---       #270
      ---         BLOCKEND  ---      ---       LVL=0

      ---         MODULE    ---      ---       page_btspp
      00FE992CH   PUBLIC    ECODE    ---       pageRegister_page_bluetooth_serial?
      00FE97B9H   PUBLIC    ECODE    ---       lableRollDown?
      00FE9733H   PUBLIC    ECODE    ---       lableAppendTextWithRoll?
      00FE9772H   PUBLIC    ECODE    ---       lableRollUp?
      000000D0H   SFRSYM    DATA     BYTE      PSW
      00000088H   SFRSYM    DATA     BYTE      TCON
      00000098H   SFRSYM    DATA     BYTE      SCON
      000000B8H   SFRSYM    DATA     BYTE      IP
      000000A8H   SFRSYM    DATA     BYTE      IE
      000000F8H   SFRSYM    DATA     BYTE      P7
      000000E8H   SFRSYM    DATA     BYTE      P6
      000000C8H   SFRSYM    DATA     BYTE      P5
      000000C0H   SFRSYM    DATA     BYTE      P4
      000000B0H   SFRSYM    DATA     BYTE      P3
      000000A0H   SFRSYM    DATA     BYTE      P2
      00000090H   SFRSYM    DATA     BYTE      P1
      00000080H   SFRSYM    DATA     BYTE      P0
      00FE98CEH   SYMBOL    ECODE    ---       Event?
      00FE9837H   SYMBOL    ECODE    ---       delet?
      00FE980CH   SYMBOL    ECODE    ---       Setup?
      00FE9872H   SYMBOL    ECODE    ---       Loop?
      00FE9847H   SYMBOL    ECODE    ---       Exit?
      00FF16CFH   SYMBOL    CODE     ---       Icon
      0001161CH   SYMBOL    XDATA    BYTE      is_bluetooth_connected
      0001161DH   SYMBOL    XDATA    ---       rx_data
      00000AA3H   SYMBOL    EDATA    ---       lable1

      00FE9733H   BLOCK     ECODE    ---       LVL=0
      REG=2       REGSYM    ---      ---       text
      00FE9735H   BLOCK     ECODE    NEAR LAB  LVL=1
      WR4         REGSYM    ---      INT       temp
      ---         BLOCKEND  ---      ---       LVL=1
      00FE9733H   LINE      ECODE    ---       #32
      00FE9735H   LINE      ECODE    ---       #33
      00FE9735H   LINE      ECODE    ---       #35
      00FE973FH   LINE      ECODE    ---       #36
      00FE9751H   LINE      ECODE    ---       #37
      00FE9757H   LINE      ECODE    ---       #38
      00FE9771H   LINE      ECODE    ---       #40
L251 LINKER/LOCATER V4.66.93.0                                                        08/24/2022  19:19:43  PAGE 148


      ---         BLOCKEND  ---      ---       LVL=0

      00FE9772H   BLOCK     ECODE    ---       LVL=0
      00FE9772H   LINE      ECODE    ---       #41
      00FE9774H   LINE      ECODE    ---       #43
      00FE9782H   LINE      ECODE    ---       #44
      00FE9798H   LINE      ECODE    ---       #46
      00FE97B6H   LINE      ECODE    ---       #47
      ---         BLOCKEND  ---      ---       LVL=0

      00FE97B9H   BLOCK     ECODE    ---       LVL=0
      00FE97B9H   LINE      ECODE    ---       #48
      00FE97BBH   LINE      ECODE    ---       #50
      00FE97CFH   LINE      ECODE    ---       #51
      00FE97E5H   LINE      ECODE    ---       #53
      00FE9809H   LINE      ECODE    ---       #54
      ---         BLOCKEND  ---      ---       LVL=0

      00FE980CH   BLOCK     ECODE    ---       LVL=0
      00FE980CH   LINE      ECODE    ---       #60
      00FE980CH   LINE      ECODE    ---       #62
      00FE981BH   LINE      ECODE    ---       #63
      00FE9833H   LINE      ECODE    ---       #64
      ---         BLOCKEND  ---      ---       LVL=0

      00FE9837H   BLOCK     ECODE    ---       LVL=0
      00FE9837H   LINE      ECODE    ---       #66
      00FE9837H   LINE      ECODE    ---       #68
      00FE983FH   LINE      ECODE    ---       #69
      ---         BLOCKEND  ---      ---       LVL=0

      00FE9847H   BLOCK     ECODE    ---       LVL=0
      00FE9847H   LINE      ECODE    ---       #76
      00FE9847H   LINE      ECODE    ---       #78
      00FE984BH   LINE      ECODE    ---       #79
      00FE9850H   LINE      ECODE    ---       #80
      ---         BLOCKEND  ---      ---       LVL=0

      00FE9872H   BLOCK     ECODE    ---       LVL=0
      00FE9872H   LINE      ECODE    ---       #87
      00FE9872H   LINE      ECODE    ---       #89
      00FE987CH   LINE      ECODE    ---       #91
      00FE9880H   LINE      ECODE    ---       #92
      00FE9886H   LINE      ECODE    ---       #94
      00FE988CH   LINE      ECODE    ---       #96
      00FE9892H   LINE      ECODE    ---       #97
      00FE989AH   LINE      ECODE    ---       #98
      00FE989CH   LINE      ECODE    ---       #102
      00FE98A2H   LINE      ECODE    ---       #104
      00FE98A7H   LINE      ECODE    ---       #105
      00FE98B3H   LINE      ECODE    ---       #106
      00FE98B3H   LINE      ECODE    ---       #108
      00FE98C1H   LINE      ECODE    ---       #110
      00FE98CDH   LINE      ECODE    ---       #111
      00FE98CDH   LINE      ECODE    ---       #113
      ---         BLOCKEND  ---      ---       LVL=0

      00FE98CEH   BLOCK     ECODE    ---       LVL=0
      R7          REGSYM    ---      BYTE      event
      00FE98CEH   LINE      ECODE    ---       #120
      00FE98D0H   LINE      ECODE    ---       #122
      00FE98D4H   LINE      ECODE    ---       #123
      00FE98DDH   LINE      ECODE    ---       #124
      00FE98E1H   LINE      ECODE    ---       #126
      00FE98E5H   LINE      ECODE    ---       #127
L251 LINKER/LOCATER V4.66.93.0                                                        08/24/2022  19:19:43  PAGE 149


      00FE98E5H   LINE      ECODE    ---       #128
      00FE98E9H   LINE      ECODE    ---       #130
      00FE98F1H   LINE      ECODE    ---       #131
      00FE98FDH   LINE      ECODE    ---       #132
      00FE98FDH   LINE      ECODE    ---       #133
      00FE9901H   LINE      ECODE    ---       #135
      00FE9905H   LINE      ECODE    ---       #136
      00FE9905H   LINE      ECODE    ---       #137
      00FE9909H   LINE      ECODE    ---       #139
      00FE992BH   LINE      ECODE    ---       #140
      ---         BLOCKEND  ---      ---       LVL=0

      00FE992CH   BLOCK     ECODE    ---       LVL=0
      R3          REGSYM    ---      BYTE      pageID
      00FE992CH   LINE      ECODE    ---       #142
      00FE992CH   LINE      ECODE    ---       #144
      ---         BLOCKEND  ---      ---       LVL=0

      ---         MODULE    ---      ---       page_stopwatch
      00FE5CD7H   PUBLIC    ECODE    ---       TM0_Isr?
      00FE6144H   PUBLIC    ECODE    ---       pageRegister_page_timer?
      000008D1H   PUBLIC    EDATA    BYTE      record_cnt
      000008E0H   PUBLIC    EDATA    WORD      timer_cnt
      000008E7H   PUBLIC    EDATA    ---       tp
      000000D0H   SFRSYM    DATA     BYTE      PSW
      00000088H.4 SFRSYM    DATA     BIT       TR0
      0000008AH   SFRSYM    DATA     BYTE      TL0
      0000008CH   SFRSYM    DATA     BYTE      TH0
      00000088H   SFRSYM    DATA     BYTE      TCON
      00000098H   SFRSYM    DATA     BYTE      SCON
      000000B8H   SFRSYM    DATA     BYTE      IP
      000000A8H   SFRSYM    DATA     BYTE      IE
      000000F8H   SFRSYM    DATA     BYTE      P7
      000000E8H   SFRSYM    DATA     BYTE      P6
      000000C8H   SFRSYM    DATA     BYTE      P5
      000000C0H   SFRSYM    DATA     BYTE      P4
      000000B0H   SFRSYM    DATA     BYTE      P3
      000000A0H   SFRSYM    DATA     BYTE      P2
      00000090H   SFRSYM    DATA     BYTE      P1
      00000080H   SFRSYM    DATA     BYTE      P0
      00FE5F99H   SYMBOL    ECODE    ---       Event?
      00FE5EBCH   SYMBOL    ECODE    ---       delet?
      00FE5CE5H   SYMBOL    ECODE    ---       Setup?
      00FE5EEEH   SYMBOL    ECODE    ---       Loop?
      00FE5ECCH   SYMBOL    ECODE    ---       Exit?
      00FF08ACH   SYMBOL    CODE     ---       PAUSE
      00FF08CEH   SYMBOL    CODE     ---       RESET
      00FF08F0H   SYMBOL    CODE     ---       Icon
      00FF0A12H   SYMBOL    CODE     ---       START
      00FF0A34H   SYMBOL    CODE     ---       CHECK
      000008CDH   SYMBOL    EDATA    DWORD     ms_cnt
      000008D2H   SYMBOL    EDATA    ---       text_record
      000008DEH   SYMBOL    EDATA    BYTE      sec
      000008DFH   SYMBOL    EDATA    BYTE      min
      000008E2H   SYMBOL    EDATA    BYTE      ms
      000008E3H   SYMBOL    EDATA    ---       group1
      000008F0H   SYMBOL    EDATA    ---       bmp1
      000008F4H   SYMBOL    EDATA    ---       bmp2
      000008F8H   SYMBOL    EDATA    ---       bmp3
      000008FCH   SYMBOL    EDATA    ---       text1

      00FE5CD7H   BLOCK     ECODE    ---       LVL=0
      00FE5CD7H   LINE      ECODE    ---       #64
      00FE5CDAH   LINE      ECODE    ---       #66
      00FE5CE4H   LINE      ECODE    ---       #67
L251 LINKER/LOCATER V4.66.93.0                                                        08/24/2022  19:19:43  PAGE 150


      ---         BLOCKEND  ---      ---       LVL=0

      00FE5CE5H   BLOCK     ECODE    ---       LVL=0
      00FE5CE7H   BLOCK     ECODE    NEAR LAB  LVL=1
      R15         REGSYM    ---      BYTE      i
      ---         BLOCKEND  ---      ---       LVL=1
      00FE5CE5H   LINE      ECODE    ---       #73
      00FE5CE7H   LINE      ECODE    ---       #74
      00FE5CE7H   LINE      ECODE    ---       #76
      00FE5CF7H   LINE      ECODE    ---       #77
      00FE5CF9H   LINE      ECODE    ---       #78
      00FE5D18H   LINE      ECODE    ---       #79
      00FE5D30H   LINE      ECODE    ---       #80
      00FE5D46H   LINE      ECODE    ---       #81
      00FE5D5EH   LINE      ECODE    ---       #82
      00FE5D6AH   LINE      ECODE    ---       #83
      00FE5D7AH   LINE      ECODE    ---       #84
      00FE5D80H   LINE      ECODE    ---       #86
      00FE5D89H   LINE      ECODE    ---       #87
      00FE5D92H   LINE      ECODE    ---       #88
      00FE5D9BH   LINE      ECODE    ---       #89
      00FE5D9EH   LINE      ECODE    ---       #92
      00FE5DA3H   LINE      ECODE    ---       #94
      00FE5DF1H   LINE      ECODE    ---       #95
      00FE5E0FH   LINE      ECODE    ---       #96
      00FE5E21H   LINE      ECODE    ---       #97
      00FE5E2EH   LINE      ECODE    ---       #98
      00FE5E2EH   LINE      ECODE    ---       #99
      00FE5E38H   LINE      ECODE    ---       #100
      00FE5E43H   LINE      ECODE    ---       #101
      00FE5E50H   LINE      ECODE    ---       #102
      00FE5E5DH   LINE      ECODE    ---       #103
      00FE5E6AH   LINE      ECODE    ---       #104
      00FE5E77H   LINE      ECODE    ---       #105
      00FE5E84H   LINE      ECODE    ---       #106
      00FE5E91H   LINE      ECODE    ---       #107
      00FE5E9FH   LINE      ECODE    ---       #108
      00FE5EB9H   LINE      ECODE    ---       #109
      ---         BLOCKEND  ---      ---       LVL=0

      00FE5EBCH   BLOCK     ECODE    ---       LVL=0
      00FE5EBCH   LINE      ECODE    ---       #110
      00FE5EBCH   LINE      ECODE    ---       #112
      00FE5EC4H   LINE      ECODE    ---       #113
      ---         BLOCKEND  ---      ---       LVL=0

      00FE5ECCH   BLOCK     ECODE    ---       LVL=0
      00FE5ECCH   LINE      ECODE    ---       #120
      00FE5ECCH   LINE      ECODE    ---       #122
      ---         BLOCKEND  ---      ---       LVL=0

      00FE5EEEH   BLOCK     ECODE    ---       LVL=0
      00FE5EEEH   LINE      ECODE    ---       #129
      00FE5EF0H   LINE      ECODE    ---       #131
      00FE5EFDH   LINE      ECODE    ---       #133
      00FE5F2CH   LINE      ECODE    ---       #134
      00FE5F42H   LINE      ECODE    ---       #135
      00FE5F5CH   LINE      ECODE    ---       #136
      00FE5F68H   LINE      ECODE    ---       #137
      00FE5F96H   LINE      ECODE    ---       #138
      ---         BLOCKEND  ---      ---       LVL=0

      00FE5F99H   BLOCK     ECODE    ---       LVL=0
      R15         REGSYM    ---      BYTE      event
      00FE60F4H   BLOCK     ECODE    NEAR LAB  LVL=1
L251 LINKER/LOCATER V4.66.93.0                                                        08/24/2022  19:19:43  PAGE 151


      R15         REGSYM    ---      BYTE      i
      ---         BLOCKEND  ---      ---       LVL=1
      00FE5F99H   LINE      ECODE    ---       #146
      00FE5F9DH   LINE      ECODE    ---       #148
      00FE5FA2H   LINE      ECODE    ---       #149
      00FE5FAEH   LINE      ECODE    ---       #150
      00FE5FB3H   LINE      ECODE    ---       #152
      00FE5FC1H   LINE      ECODE    ---       #154
      00FE5FCAH   LINE      ECODE    ---       #155
      00FE5FCCH   LINE      ECODE    ---       #156
      00FE5FD2H   LINE      ECODE    ---       #157
      00FE5FDEH   LINE      ECODE    ---       #158
      00FE5FE0H   LINE      ECODE    ---       #161
      00FE5FE6H   LINE      ECODE    ---       #162
      00FE5FF2H   LINE      ECODE    ---       #163
      00FE5FF4H   LINE      ECODE    ---       #164
      00FE6004H   LINE      ECODE    ---       #165
      00FE6004H   LINE      ECODE    ---       #166
      00FE6007H   LINE      ECODE    ---       #167
      00FE600FH   LINE      ECODE    ---       #169
      00FE601EH   LINE      ECODE    ---       #171
      00FE602AH   LINE      ECODE    ---       #173
      00FE6075H   LINE      ECODE    ---       #174
      00FE608CH   LINE      ECODE    ---       #175
      00FE60B8H   LINE      ECODE    ---       #176
      00FE60C9H   LINE      ECODE    ---       #177
      00FE60D1H   LINE      ECODE    ---       #178
      00FE60D9H   LINE      ECODE    ---       #179
      00FE60D9H   LINE      ECODE    ---       #180
      00FE60E7H   LINE      ECODE    ---       #181
      00FE60EDH   LINE      ECODE    ---       #182
      00FE60EDH   LINE      ECODE    ---       #183
      00FE60EFH   LINE      ECODE    ---       #184
      00FE60F4H   LINE      ECODE    ---       #185
      00FE60F4H   LINE      ECODE    ---       #187
      00FE60F9H   LINE      ECODE    ---       #188
      00FE60FBH   LINE      ECODE    ---       #190
      00FE610CH   LINE      ECODE    ---       #191
      00FE6122H   LINE      ECODE    ---       #192
      00FE6129H   LINE      ECODE    ---       #193
      00FE6135H   LINE      ECODE    ---       #195
      00FE6138H   LINE      ECODE    ---       #196
      00FE613BH   LINE      ECODE    ---       #197
      00FE6141H   LINE      ECODE    ---       #198
      00FE6141H   LINE      ECODE    ---       #200
      ---         BLOCKEND  ---      ---       LVL=0

      00FE6144H   BLOCK     ECODE    ---       LVL=0
      R3          REGSYM    ---      BYTE      pageID
      00FE6144H   LINE      ECODE    ---       #201
      00FE6144H   LINE      ECODE    ---       #203
      ---         BLOCKEND  ---      ---       LVL=0

      ---         MODULE    ---      ---       Bluetooth
      00FEAB46H   PUBLIC    ECODE    ---       Uart4Isr?
      00FEABCCH   PUBLIC    ECODE    ---       BtCheckConnection?
      00FEAC11H   PUBLIC    ECODE    ---       BtSendString?
      00FEABC3H   PUBLIC    ECODE    ---       BtOff?
      00FEAB8CH   PUBLIC    ECODE    ---       Uart4SendChar?
      00FEAB9EH   PUBLIC    ECODE    ---       BtOn?
      00FEABD1H   PUBLIC    ECODE    ---       BtReceiveString?
      000115DAH   PUBLIC    XDATA    BYTE      uart4_busy_flag
      000115DBH   PUBLIC    XDATA    ---       rx4_buf
      0001161BH   PUBLIC    XDATA    BYTE      rx4_cnt
      000000D0H   SFRSYM    DATA     BYTE      PSW
L251 LINKER/LOCATER V4.66.93.0                                                        08/24/2022  19:19:43  PAGE 152


      000000FDH   SFRSYM    DATA     BYTE      S4CON
      000000FEH   SFRSYM    DATA     BYTE      S4BUF
      000000AFH   SFRSYM    DATA     BYTE      IE2
      000000C0H.5 SFRSYM    DATA     BIT       P45
      00000088H   SFRSYM    DATA     BYTE      TCON
      00000098H   SFRSYM    DATA     BYTE      SCON
      00000080H.0 SFRSYM    DATA     BIT       P00
      000000B8H   SFRSYM    DATA     BYTE      IP
      000000A8H   SFRSYM    DATA     BYTE      IE
      000000F8H   SFRSYM    DATA     BYTE      P7
      000000E8H   SFRSYM    DATA     BYTE      P6
      000000C8H   SFRSYM    DATA     BYTE      P5
      000000C0H   SFRSYM    DATA     BYTE      P4
      000000B0H   SFRSYM    DATA     BYTE      P3
      000000A0H   SFRSYM    DATA     BYTE      P2
      00000090H   SFRSYM    DATA     BYTE      P1
      00000080H   SFRSYM    DATA     BYTE      P0

      00FEAB46H   BLOCK     ECODE    ---       LVL=0
      00FEAB46H   LINE      ECODE    ---       #9
      00FEAB4CH   LINE      ECODE    ---       #11
      00FEAB51H   LINE      ECODE    ---       #13
      00FEAB54H   LINE      ECODE    ---       #14
      00FEAB59H   LINE      ECODE    ---       #15
      00FEAB59H   LINE      ECODE    ---       #16
      00FEAB5EH   LINE      ECODE    ---       #18
      00FEAB61H   LINE      ECODE    ---       #19
      00FEAB76H   LINE      ECODE    ---       #20
      00FEAB80H   LINE      ECODE    ---       #21
      00FEAB85H   LINE      ECODE    ---       #22
      00FEAB85H   LINE      ECODE    ---       #23
      ---         BLOCKEND  ---      ---       LVL=0

      00FEAB8CH   BLOCK     ECODE    ---       LVL=0
      R10         REGSYM    ---      CHAR      c
      00FEAB8CH   LINE      ECODE    ---       #24
      00FEAB8EH   LINE      ECODE    ---       #26
      00FEAB94H   LINE      ECODE    ---       #27
      00FEAB9AH   LINE      ECODE    ---       #28
      00FEAB9DH   LINE      ECODE    ---       #29
      ---         BLOCKEND  ---      ---       LVL=0

      00FEAB9EH   BLOCK     ECODE    ---       LVL=0
      R10         REGSYM    ---      BYTE      i
      00FEAB9EH   LINE      ECODE    ---       #31
      00FEAB9EH   LINE      ECODE    ---       #32
      00FEAB9EH   LINE      ECODE    ---       #34
      00FEABA0H   LINE      ECODE    ---       #35
      00FEABB5H   LINE      ECODE    ---       #36
      00FEABBAH   LINE      ECODE    ---       #37
      00FEABBDH   LINE      ECODE    ---       #38
      00FEABC0H   LINE      ECODE    ---       #39
      00FEABC2H   LINE      ECODE    ---       #40
      ---         BLOCKEND  ---      ---       LVL=0

      00FEABC3H   BLOCK     ECODE    ---       LVL=0
      00FEABC3H   LINE      ECODE    ---       #41
      00FEABC3H   LINE      ECODE    ---       #43
      00FEABC5H   LINE      ECODE    ---       #44
      00FEABC8H   LINE      ECODE    ---       #45
      00FEABCBH   LINE      ECODE    ---       #46
      ---         BLOCKEND  ---      ---       LVL=0

      00FEABCCH   BLOCK     ECODE    ---       LVL=0
      00FEABCCH   LINE      ECODE    ---       #47
L251 LINKER/LOCATER V4.66.93.0                                                        08/24/2022  19:19:43  PAGE 153


      00FEABCCH   LINE      ECODE    ---       #49
      00FEABD0H   LINE      ECODE    ---       #50
      ---         BLOCKEND  ---      ---       LVL=0

      00FEABD1H   BLOCK     ECODE    ---       LVL=0
      REG=7       REGSYM    ---      ---       dptr
      00FEABDDH   BLOCK     ECODE    NEAR LAB  LVL=1
      R7          REGSYM    ---      BYTE      i
      R10         REGSYM    ---      BYTE      temp
      ---         BLOCKEND  ---      ---       LVL=1
      00FEABD1H   LINE      ECODE    ---       #51
      00FEABD3H   LINE      ECODE    ---       #53
      00FEABDDH   LINE      ECODE    ---       #54
      00FEABDDH   LINE      ECODE    ---       #56
      00FEABDDH   LINE      ECODE    ---       #57
      00FEABE2H   LINE      ECODE    ---       #58
      00FEABE6H   LINE      ECODE    ---       #60
      00FEABFCH   LINE      ECODE    ---       #61
      00FEAC02H   LINE      ECODE    ---       #62
      00FEAC0CH   LINE      ECODE    ---       #63
      00FEAC0FH   LINE      ECODE    ---       #64
      00FEAC0FH   LINE      ECODE    ---       #66
      00FEAC10H   LINE      ECODE    ---       #67
      ---         BLOCKEND  ---      ---       LVL=0

      00FEAC11H   BLOCK     ECODE    ---       LVL=0
      REG=3       REGSYM    ---      ---       str
      00FEAC11H   LINE      ECODE    ---       #68
      00FEAC15H   LINE      ECODE    ---       #70
      00FEAC17H   LINE      ECODE    ---       #72
      00FEAC1EH   LINE      ECODE    ---       #73
      00FEAC20H   LINE      ECODE    ---       #74
      00FEAC25H   LINE      ECODE    ---       #75
      ---         BLOCKEND  ---      ---       LVL=0

      ---         MODULE    ---      ---       ?C?FPADD?
      00FE0406H   PUBLIC    ECODE    ---       ?C?FPADD?
      00FE0403H   PUBLIC    ECODE    ---       ?C?FPSUB?

      ---         MODULE    ---      ---       ?C?FPMUL?
      00FE04BEH   PUBLIC    ECODE    ---       ?C?FPMUL?

      ---         MODULE    ---      ---       ?C?FPDIV?
      00FE055EH   PUBLIC    ECODE    ---       ?C?FPDIV?

      ---         MODULE    ---      ---       ?C?FPCMP?
      00FE05DFH   PUBLIC    ECODE    ---       ?C?FPCMP3?
      00FE05E1H   PUBLIC    ECODE    ---       ?C?FPCMP?

      ---         MODULE    ---      ---       ?C?FPNEG?
      00FE0625H   PUBLIC    ECODE    ---       ?C?FPNEG?

      ---         MODULE    ---      ---       ?C?FCAST?
      00FE063DH   PUBLIC    ECODE    FAR LAB   ?C?FCASTC?
      00FE0638H   PUBLIC    ECODE    FAR LAB   ?C?FCASTI?
      00FE0633H   PUBLIC    ECODE    FAR LAB   ?C?FCASTL?

      ---         MODULE    ---      ---       ?C?CASTF?
      00FE0670H   PUBLIC    ECODE    FAR LAB   ?C?CASTF?

      ---         MODULE    ---      ---       PRINTF?
      000007EBH   PUBLIC    EDATA    ---       ?PRINTF??BYTE
      00FE06ADH   PUBLIC    ECODE    FAR LAB   PRINTF?

      ---         MODULE    ---      ---       SPRINTF?
L251 LINKER/LOCATER V4.66.93.0                                                        08/24/2022  19:19:43  PAGE 154


      000007DBH   PUBLIC    EDATA    ---       ?SPRINTF??BYTE
      00FE06DAH   PUBLIC    ECODE    FAR LAB   SPRINTF?

      ---         MODULE    ---      ---       SQRT??
      00FE06FAH   PUBLIC    ECODE    ---       SQRT??

      ---         MODULE    ---      ---       SIN??
      00FE07D4H   PUBLIC    ECODE    ---       COS??
      00FE07F1H   PUBLIC    ECODE    ---       SIN??
      00FE081FH   PUBLIC    ECODE    ---       TAN??

      ---         MODULE    ---      ---       ATAN??
      00FE08EFH   PUBLIC    ECODE    ---       ATAN??

      ---         MODULE    ---      ---       ASIN??
      00FE09CAH   PUBLIC    ECODE    ---       ASIN??

      ---         MODULE    ---      ---       ATAN2?
      00FEAFB6H   PUBLIC    ECODE    ---       atan2??

      ---         MODULE    ---      ---       ?C?FPGETOPN?
      00FE09EFH   PUBLIC    ECODE    ---       ?C?FPGETOPN2?
      00FE0A2CH   PUBLIC    ECODE    ---       ?C?FPNANRESULT?
      00FE0A34H   PUBLIC    ECODE    ---       ?C?FPOVERFLOW?
      00FE0A1EH   PUBLIC    ECODE    ---       ?C?FPRESULT2?
      00FE0A08H   PUBLIC    ECODE    ---       ?C?FPRESULT?
      00FE0A31H   PUBLIC    ECODE    ---       ?C?FPUNDERFLOW?

      ---         MODULE    ---      ---       ?C?PRNFMT?
      00FE0A6DH   PUBLIC    ECODE    ---       ?C?PRNFMT?

      ---         MODULE    ---      ---       ?C?FPSERIES?
      00FE0E7CH   PUBLIC    ECODE    ---       ?C?FP2SERIES?
      00FE0E86H   PUBLIC    ECODE    ---       ?C?FPSERIES?

      ---         MODULE    ---      ---       ?C?FPCONVERT?
      00FE0EBAH   PUBLIC    ECODE    ---       ?C?FPCONVERT?
      00FE0F74H   PUBLIC    ECODE    ---       ?C?FPROUND?

      ---         MODULE    ---      ---       ?C?FTNPWR?
      00FE0FE7H   PUBLIC    ECODE    ---       ?C?FTNPWR?

      ---         MODULE    ---      ---       ?C_START?
      00FF0000H   PUBLIC    CODE     ---       ?C?STARTUP?
      00FF0000H   PUBLIC    CODE     ---       ?C_STARTUP?

      ---         MODULE    ---      ---       ?C?INITEDATA
      00FF1886H   PUBLIC    CODE     ---       ?C?INITEDATA

      ---         MODULE    ---      ---       ?C?INITHDATA
      00FF18AFH   PUBLIC    CODE     ---       ?C?INITHDATA

      ---         MODULE    ---      ---       ?C?SIDIV?
      00FE101FH   PUBLIC    ECODE    ---       ?C?SIDIV?

      ---         MODULE    ---      ---       ?C?ULDIV?
      00FE1053H   PUBLIC    ECODE    FAR LAB   ?C?ULDIV?
      00FE1051H   PUBLIC    ECODE    FAR LAB   ?C?ULIDIV?

      ---         MODULE    ---      ---       PUTCHAR?
      00FE10A4H   PUBLIC    ECODE    FAR LAB   PUTCHAR?

      ---         MODULE    ---      ---       ATOI?
      00FEAE1AH   PUBLIC    ECODE    ---       atoi??

L251 LINKER/LOCATER V4.66.93.0                                                        08/24/2022  19:19:43  PAGE 155


      ---         MODULE    ---      ---       RAND?
      00FEB057H   PUBLIC    ECODE    ---       srand??
      00FEB037H   PUBLIC    ECODE    ---       rand??

      ---         MODULE    ---      ---       STRCMP??
      00FEB0DEH   PUBLIC    ECODE    FAR LAB   STRCMP??

      ---         MODULE    ---      ---       MEMCPY?
      00FEB0B5H   PUBLIC    ECODE    ---       memcpy??

      ---         MODULE    ---      ---       MALLOC?
      00FEAF0BH   PUBLIC    ECODE    ---       malloc?

      ---         MODULE    ---      ---       FREE?
      00FEAA5FH   PUBLIC    ECODE    ---       free?

      ---         MODULE    ---      ---       INIT_MEM?
      00FEB068H   PUBLIC    ECODE    ---       init_mempool?

      ---         MODULE    ---      ---       REALLOC?
      00FEAF64H   PUBLIC    ECODE    ---       realloc?

      ---         MODULE    ---      ---       CALLOC?
      00FEB08FH   PUBLIC    ECODE    ---       calloc?

      ---         MODULE    ---      ---       ?C?INITEDATA_END
      00FEB5EFH   PUBLIC    HCONST   WORD      ?C?INITEDATA_END

      ---         MODULE    ---      ---       ?C?INITHDATA_END
      00FEB45EH   PUBLIC    HCONST   WORD      ?C?INITHDATA_END

      ---         MODULE    ---      ---       ?C?LMUL?
      00FE10B7H   PUBLIC    ECODE    ---       ?C?LMUL?

      ---         MODULE    ---      ---       ISDIGIT?
      00FEB138H   PUBLIC    ECODE    ---       isdigit??

      ---         MODULE    ---      ---       ISSPACE?
      00FEB124H   PUBLIC    ECODE    ---       isspace??

      ---         MODULE    ---      ---       MEMSET?
      00FEB0F4H   PUBLIC    ECODE    ---       memset??

      ---         MODULE    ---      ---       mdefine
      00000BB1H   PUBLIC    HDATA    ---       __mp__



*** WARNING L16: UNCALLED SEGMENT, IGNORED FOR OVERLAY PROCESS
    NAME:    og_slider_getValue?/oled_slider

*** WARNING L16: UNCALLED SEGMENT, IGNORED FOR OVERLAY PROCESS
    NAME:    og_switch_getStatus?/oled_switch

*** WARNING L16: UNCALLED SEGMENT, IGNORED FOR OVERLAY PROCESS
    NAME:    SPI_ReadByte?/SPI

*** WARNING L16: UNCALLED SEGMENT, IGNORED FOR OVERLAY PROCESS
    NAME:    RX8130CEDisableTimer?/RX8130CE

*** WARNING L16: UNCALLED SEGMENT, IGNORED FOR OVERLAY PROCESS
    NAME:    iWatchPowerDown?/iWatch

*** WARNING L16: UNCALLED SEGMENT, IGNORED FOR OVERLAY PROCESS
    NAME:    IMUupdate?/LSM6DSM
L251 LINKER/LOCATER V4.66.93.0                                                        08/24/2022  19:19:43  PAGE 156



*** WARNING L16: UNCALLED SEGMENT, IGNORED FOR OVERLAY PROCESS
    NAME:    HDC2080StartConversion?/HDC2080

*** WARNING L16: UNCALLED SEGMENT, IGNORED FOR OVERLAY PROCESS
    NAME:    HDC2080GetTH?/HDC2080

*** WARNING L16: UNCALLED SEGMENT, IGNORED FOR OVERLAY PROCESS
    NAME:    HDC2080Init?/HDC2080

*** WARNING L16: UNCALLED SEGMENT, IGNORED FOR OVERLAY PROCESS
    NAME:    HTU21DReset?/HTU21D

*** WARNING L16: UNCALLED SEGMENT, IGNORED FOR OVERLAY PROCESS
    NAME:    pageRegister_page_lsm6dsl?/page_lsm6dsl

Program Size: data=38.4 edata+hdata=2957 xdata=5738 const=2121 code=50801
L251 RUN COMPLETE.  11 WARNING(S),  0 ERROR(S)
